; Listing generated by Microsoft (R) Optimizing Compiler Version 13.10.3077 

; Generated by VC++ for Common Language Runtime
.file "\Documents and Settings\stasiek.TC12\My Documents\prc++\x86_libraries\Bhapi\src\kits\support\DataIO.cpp"
.global	
.global	
	.bss
.local	,4
.local	,4
; Function compile flags: /Odt
; File c:\program files\microsoft visual studio .net 2003\vc7\include\xmemory
	.text
	.comdat	any, ??0?$allocator@X@std@@$$FQAE@ABV01@@Z
.global	??0?$allocator@X@std@@$$FQAE@ABV01@@Z		; std::allocator<void>::allocator<void>
??0?$allocator@X@std@@$$FQAE@ABV01@@Z:			; std::allocator<void>::allocator<void>
;	.proc.def	D:I(II)

; Function Header:
; max stack depth = 1
; function size = 2 bytes
; local varsig tk = 0x0 
; Exception Information:
; 0 handlers, each consisting of filtered handlers

;	.formal.i4 0,"_this$" SIG: Optional C Binding Modifier(token:0x9DE1EE).Optional C Binding Modifier(token:0x9DE1F0).ptr.valueType (token:0x9DE1F3)

;	.proc.beg

; 197  : 		{	// construct by copying (do nothing)
; 198  : 		}

	ldarg.0				; _this$
$L5944:
	ret		
 .end ??0?$allocator@X@std@@$$FQAE@ABV01@@Z		; std::allocator<void>::allocator<void>
;	.proc.end.i4
text	ENDS
PUBLIC	??0?$allocator@X@std@@QAE@ABV01@@Z		; std::allocator<void>::allocator<void>
PUBLIC	__mep@??0?$allocator@X@std@@$$FQAE@ABV01@@Z
;	COMDAT __mep@??0?$allocator@X@std@@$$FQAE@ABV01@@Z
data	SEGMENT
__mep@??0?$allocator@X@std@@$$FQAE@ABV01@@Z TOKEN 06000038
; Function compile flags: /Odt
data	ENDS
;	COMDAT ??0?$allocator@X@std@@QAE@ABV01@@Z
text	SEGMENT
??0?$allocator@X@std@@QAE@ABV01@@Z PROC NEAR		; std::allocator<void>::allocator<void>, COMDAT
	jmp	DWORD PTR __mep@??0?$allocator@X@std@@$$FQAE@ABV01@@Z
??0?$allocator@X@std@@QAE@ABV01@@Z ENDP			; std::allocator<void>::allocator<void>
.global	??_7BDataIO@@6B@				; BDataIO::`vftable'
.global	??_R4BDataIO@@6B@				; BDataIO::`RTTI Complete Object Locator'
.global	??_R0?AVBDataIO@@@8				; BDataIO `RTTI Type Descriptor'
.global	??_R3BDataIO@@8					; BDataIO::`RTTI Class Hierarchy Descriptor'
.global	??_R2BDataIO@@8					; BDataIO::`RTTI Base Class Array'
.global	??_R1A@?0A@A@BDataIO@@8				; BDataIO::`RTTI Base Class Descriptor at (0,-1,0,0)'
.global	
	.bss
.local	,4
; File c:\documents and settings\stasiek.tc12\my documents\prc++\x86_libraries\bhapi\src\kits\support\dataio.cpp
	.data
	.comdat	largest, ??_7BDataIO@@6B@

??_7BDataIO@@6B@:					; BDataIO::`vftable'
	DD	??_R4BDataIO@@6B@
??_7BDataIO@@6B@:					; BDataIO::`vftable'
	DD	??_EBDataIO@@UAEPAXI@Z
??_7BDataIO@@6B@:					; BDataIO::`vftable'
	DD	__purecall
??_7BDataIO@@6B@:					; BDataIO::`vftable'
	DD	__purecall
	.rdataseg	.rdata$r
	.comdat	any, ??_R4BDataIO@@6B@

??_R4BDataIO@@6B@:					; BDataIO::`RTTI Complete Object Locator'
	.word	0x0
??_R4BDataIO@@6B@:					; BDataIO::`RTTI Complete Object Locator'
	.word	0x0
??_R4BDataIO@@6B@:					; BDataIO::`RTTI Complete Object Locator'
	.word	0x0
??_R4BDataIO@@6B@:					; BDataIO::`RTTI Complete Object Locator'
	DD	??_R0?AVBDataIO@@@8
??_R4BDataIO@@6B@:					; BDataIO::`RTTI Complete Object Locator'
	DD	??_R3BDataIO@@8
	.data
	.comdat	any, ??_R0?AVBDataIO@@@8

??_R0?AVBDataIO@@@8:					; BDataIO `RTTI Type Descriptor'
	DD	??_7type_info@@6B@
??_R0?AVBDataIO@@@8:					; BDataIO `RTTI Type Descriptor'
	.word	0x0
??_R0?AVBDataIO@@@8:					; BDataIO `RTTI Type Descriptor'
	.ascii	".?AVBDataIO@@\000"
	.rdataseg	.rdata$r
	.comdat	any, ??_R3BDataIO@@8

??_R3BDataIO@@8:					; BDataIO::`RTTI Class Hierarchy Descriptor'
	.word	0x0
??_R3BDataIO@@8:					; BDataIO::`RTTI Class Hierarchy Descriptor'
	.word	0x0
??_R3BDataIO@@8:					; BDataIO::`RTTI Class Hierarchy Descriptor'
	.word	0x1
??_R3BDataIO@@8:					; BDataIO::`RTTI Class Hierarchy Descriptor'
	DD	??_R2BDataIO@@8
	.rdataseg	.rdata$r
	.comdat	any, ??_R2BDataIO@@8

??_R2BDataIO@@8:					; BDataIO::`RTTI Base Class Array'
	DD	??_R1A@?0A@A@BDataIO@@8
	.rdataseg	.rdata$r
	.comdat	any, ??_R1A@?0A@A@BDataIO@@8

??_R1A@?0A@A@BDataIO@@8:				; BDataIO::`RTTI Base Class Descriptor at (0,-1,0,0)'
	DD	??_R0?AVBDataIO@@@8
??_R1A@?0A@A@BDataIO@@8:				; BDataIO::`RTTI Base Class Descriptor at (0,-1,0,0)'
	.word	0x0
??_R1A@?0A@A@BDataIO@@8:				; BDataIO::`RTTI Base Class Descriptor at (0,-1,0,0)'
	.word	0x0
??_R1A@?0A@A@BDataIO@@8:				; BDataIO::`RTTI Base Class Descriptor at (0,-1,0,0)'
	.word	0xffffffff
??_R1A@?0A@A@BDataIO@@8:				; BDataIO::`RTTI Base Class Descriptor at (0,-1,0,0)'
	.word	0x0
??_R1A@?0A@A@BDataIO@@8:				; BDataIO::`RTTI Base Class Descriptor at (0,-1,0,0)'
	.word	0x0
; Function compile flags: /Odt
	.text
.global	??0BDataIO@@$$FQAE@XZ				; BDataIO::BDataIO
??0BDataIO@@$$FQAE@XZ:					; BDataIO::BDataIO
;	.proc.def	D:I(I)

; Function Header:
; max stack depth = 2
; function size = 12 bytes
; local varsig tk = 0x0 
; Exception Information:
; 0 handlers, each consisting of filtered handlers

;	.formal.i4 0,"_this$" SIG: Optional C Binding Modifier(token:0xA76DC6).Optional C Binding Modifier(token:0xA76DC8).ptr.valueType (token:0xA76DCB)

;	.proc.beg

; 34   : {

	ldarg.0				; _this$
	ldsflda		??_7BDataIO@@6B@
	unaligned	1		; u32 0x1
	stind.i4	

; 35   : }

	ldarg.0				; _this$
$L5959:
	ret		
 .end ??0BDataIO@@$$FQAE@XZ				; BDataIO::BDataIO
;	.proc.end.i4
text	ENDS
PUBLIC	??0BDataIO@@QAE@XZ				; BDataIO::BDataIO
PUBLIC	__mep@??0BDataIO@@$$FQAE@XZ
;	COMDAT __mep@??0BDataIO@@$$FQAE@XZ
data	SEGMENT
__mep@??0BDataIO@@$$FQAE@XZ TOKEN 06000039
; Function compile flags: /Odt
data	ENDS
;	COMDAT ??0BDataIO@@QAE@XZ
text	SEGMENT
??0BDataIO@@QAE@XZ PROC NEAR				; BDataIO::BDataIO, COMDAT
	jmp	DWORD PTR __mep@??0BDataIO@@$$FQAE@XZ
??0BDataIO@@QAE@XZ ENDP					; BDataIO::BDataIO
.global	__unep@??1BDataIO@@$$FUAE@XZ
	.rdata
	.comdat	any, __unep@??1BDataIO@@$$FUAE@XZ

__unep@??1BDataIO@@$$FUAE@XZ:
	DD	??1BDataIO@@UAE@XZ
; Function compile flags: /Odt
	.text
	.comdat	any, ??_EBDataIO@@$$FUAEPAXI@Z
.global	??_EBDataIO@@$$FUAEPAXI@Z			; BDataIO::`vector deleting destructor'
??_EBDataIO@@$$FUAEPAXI@Z:				; BDataIO::`vector deleting destructor'
;	.proc.def	D:I(II)

; Function Header:
; max stack depth = 4
; function size = 60 bytes
; local varsig tk = 0x0 
; Exception Information:
; 0 handlers, each consisting of filtered handlers

;	.formal.u4 1,"___flags$"
;	.formal.i4 0,"_this$" SIG: Optional C Binding Modifier(token:0xA76DC6).Optional C Binding Modifier(token:0xA76DC8).ptr.valueType (token:0xA76DCB)

;	.proc.beg
	ldarg.1				; ___flags$
	ldc.i.2		2		; u32 0x2
	and		
	brfalse.s	$L5479
	ldarg.0				; _this$
	ldc.i.4		4		; u32 0x4
	ldarg.0				; _this$
	ldc.i.4		4		; i32 0x4
	sub		
	ldind.i4	
	ldsfld		__unep@??1BDataIO@@$$FUAE@XZ
	call		??_M@$$FYGXPAXIHP6EX0@Z@Z
	ldarg.1				; ___flags$
	ldc.i.1		1		; u32 0x1
	and		
	brfalse.s	$L5480
	ldarg.0				; _this$
	ldc.i.4		4		; i32 0x4
	sub		
	call		??_V@$$FYAXPAX@Z
$L5480:
	ldarg.0				; _this$
	ldc.i.4		4		; i32 0x4
	sub		
	br.s		$L5981
$L5479:
	ldarg.0				; _this$
	call		??1BDataIO@@$$FUAE@XZ
	ldarg.1				; ___flags$
	ldc.i.1		1		; u32 0x1
	and		
	brfalse.s	$L5482
	ldarg.0				; _this$
	call		??3@$$FYAXPAX@Z
$L5482:
	ldarg.0				; _this$
	br.s		$L5981
$L5981:
	ret		
 .end ??_EBDataIO@@$$FUAEPAXI@Z				; BDataIO::`vector deleting destructor'
;	.proc.end.i4
text	ENDS
PUBLIC	__mep@??_EBDataIO@@$$FUAEPAXI@Z
;	COMDAT __mep@??_EBDataIO@@$$FUAEPAXI@Z
data	SEGMENT
__mep@??_EBDataIO@@$$FUAEPAXI@Z TOKEN 0600003A
; Function compile flags: /Odt
data	ENDS
;	COMDAT ??_EBDataIO@@UAEPAXI@Z
text	SEGMENT
??_EBDataIO@@UAEPAXI@Z PROC NEAR			; BDataIO::`vector deleting destructor', COMDAT
	jmp	DWORD PTR __mep@??_EBDataIO@@$$FUAEPAXI@Z
??_EBDataIO@@UAEPAXI@Z ENDP				; BDataIO::`vector deleting destructor'
; Function compile flags: /Odt
	.text
.global	??1BDataIO@@$$FUAE@XZ				; BDataIO::~BDataIO
??1BDataIO@@$$FUAE@XZ:					; BDataIO::~BDataIO
;	.proc.def	D:V(I)

; Function Header:
; max stack depth = 2
; function size = 11 bytes
; local varsig tk = 0x0 
; Exception Information:
; 0 handlers, each consisting of filtered handlers

;	.formal.i4 0,"_this$" SIG: Optional C Binding Modifier(token:0xA76DC6).Optional C Binding Modifier(token:0xA76DC8).ptr.valueType (token:0xA76DCB)

;	.proc.beg

; 38   : {

	ldarg.0				; _this$
	ldsflda		??_7BDataIO@@6B@
	unaligned	1		; u32 0x1
	stind.i4	
$L5989:

; 39   : }

	ret		
 .end ??1BDataIO@@$$FUAE@XZ				; BDataIO::~BDataIO
;	.proc.end.void
text	ENDS
PUBLIC	__mep@??1BDataIO@@$$FUAE@XZ
;	COMDAT __mep@??1BDataIO@@$$FUAE@XZ
data	SEGMENT
__mep@??1BDataIO@@$$FUAE@XZ TOKEN 0600003B
; Function compile flags: /Odt
data	ENDS
;	COMDAT ??1BDataIO@@UAE@XZ
text	SEGMENT
??1BDataIO@@UAE@XZ PROC NEAR				; BDataIO::~BDataIO, COMDAT
	jmp	DWORD PTR __mep@??1BDataIO@@$$FUAE@XZ
??1BDataIO@@UAE@XZ ENDP					; BDataIO::~BDataIO
.global	??_7BPositionIO@@6B@				; BPositionIO::`vftable'
.global	??_R1A@?0A@A@BPositionIO@@8			; BPositionIO::`RTTI Base Class Descriptor at (0,-1,0,0)'
.global	??_R0?AVBPositionIO@@@8				; BPositionIO `RTTI Type Descriptor'
.global	??_R4BPositionIO@@6B@				; BPositionIO::`RTTI Complete Object Locator'
.global	??_R3BPositionIO@@8				; BPositionIO::`RTTI Class Hierarchy Descriptor'
.global	??_R2BPositionIO@@8				; BPositionIO::`RTTI Base Class Array'
.global	
	.bss
.local	,4
	.data
	.comdat	largest, ??_7BPositionIO@@6B@

??_7BPositionIO@@6B@:					; BPositionIO::`vftable'
	DD	??_R4BPositionIO@@6B@
??_7BPositionIO@@6B@:					; BPositionIO::`vftable'
	DD	??_EBPositionIO@@UAEPAXI@Z
??_7BPositionIO@@6B@:					; BPositionIO::`vftable'
	DD	?Read@BPositionIO@@UAEIPAXI@Z
??_7BPositionIO@@6B@:					; BPositionIO::`vftable'
	DD	?Write@BPositionIO@@UAEIPBXI@Z
??_7BPositionIO@@6B@:					; BPositionIO::`vftable'
	DD	__purecall
??_7BPositionIO@@6B@:					; BPositionIO::`vftable'
	DD	__purecall
??_7BPositionIO@@6B@:					; BPositionIO::`vftable'
	DD	__purecall
??_7BPositionIO@@6B@:					; BPositionIO::`vftable'
	DD	__purecall
??_7BPositionIO@@6B@:					; BPositionIO::`vftable'
	DD	__purecall
	.rdataseg	.rdata$r
	.comdat	any, ??_R4BPositionIO@@6B@

??_R4BPositionIO@@6B@:					; BPositionIO::`RTTI Complete Object Locator'
	.word	0x0
??_R4BPositionIO@@6B@:					; BPositionIO::`RTTI Complete Object Locator'
	.word	0x0
??_R4BPositionIO@@6B@:					; BPositionIO::`RTTI Complete Object Locator'
	.word	0x0
??_R4BPositionIO@@6B@:					; BPositionIO::`RTTI Complete Object Locator'
	DD	??_R0?AVBPositionIO@@@8
??_R4BPositionIO@@6B@:					; BPositionIO::`RTTI Complete Object Locator'
	DD	??_R3BPositionIO@@8
	.data
	.comdat	any, ??_R0?AVBPositionIO@@@8

??_R0?AVBPositionIO@@@8:				; BPositionIO `RTTI Type Descriptor'
	DD	??_7type_info@@6B@
??_R0?AVBPositionIO@@@8:				; BPositionIO `RTTI Type Descriptor'
	.word	0x0
??_R0?AVBPositionIO@@@8:				; BPositionIO `RTTI Type Descriptor'
	.ascii	".?AVBPositionIO@@\000"
	.rdataseg	.rdata$r
	.comdat	any, ??_R3BPositionIO@@8

??_R3BPositionIO@@8:					; BPositionIO::`RTTI Class Hierarchy Descriptor'
	.word	0x0
??_R3BPositionIO@@8:					; BPositionIO::`RTTI Class Hierarchy Descriptor'
	.word	0x0
??_R3BPositionIO@@8:					; BPositionIO::`RTTI Class Hierarchy Descriptor'
	.word	0x2
??_R3BPositionIO@@8:					; BPositionIO::`RTTI Class Hierarchy Descriptor'
	DD	??_R2BPositionIO@@8
	.rdataseg	.rdata$r
	.comdat	any, ??_R2BPositionIO@@8

??_R2BPositionIO@@8:					; BPositionIO::`RTTI Base Class Array'
	DD	??_R1A@?0A@A@BPositionIO@@8
??_R2BPositionIO@@8:					; BPositionIO::`RTTI Base Class Array'
	DD	??_R1A@?0A@A@BDataIO@@8
	.rdataseg	.rdata$r
	.comdat	any, ??_R1A@?0A@A@BPositionIO@@8

??_R1A@?0A@A@BPositionIO@@8:				; BPositionIO::`RTTI Base Class Descriptor at (0,-1,0,0)'
	DD	??_R0?AVBPositionIO@@@8
??_R1A@?0A@A@BPositionIO@@8:				; BPositionIO::`RTTI Base Class Descriptor at (0,-1,0,0)'
	.word	0x1
??_R1A@?0A@A@BPositionIO@@8:				; BPositionIO::`RTTI Base Class Descriptor at (0,-1,0,0)'
	.word	0x0
??_R1A@?0A@A@BPositionIO@@8:				; BPositionIO::`RTTI Base Class Descriptor at (0,-1,0,0)'
	.word	0xffffffff
??_R1A@?0A@A@BPositionIO@@8:				; BPositionIO::`RTTI Base Class Descriptor at (0,-1,0,0)'
	.word	0x0
??_R1A@?0A@A@BPositionIO@@8:				; BPositionIO::`RTTI Base Class Descriptor at (0,-1,0,0)'
	.word	0x0
; Function compile flags: /Odt
	.text
.global	??0BPositionIO@@$$FQAE@XZ			; BPositionIO::BPositionIO
??0BPositionIO@@$$FQAE@XZ:				; BPositionIO::BPositionIO
;	.proc.def	D:I(I)

; Function Header:
; max stack depth = 2
; function size = 33 bytes
; local varsig tk = 0x0 
; Exception Information:
; 1 handlers, each consisting of filtered handlers

;	.formal.i4 0,"_this$" SIG: Optional C Binding Modifier(token:0xA7675A).Optional C Binding Modifier(token:0xA7675C).ptr.valueType (token:0xA7675F)

;	.proc.beg

; 43   : {

	ldarg.0				; _this$
	call		??0BDataIO@@$$FQAE@XZ
	pop		
$L6009:
	ldarg.0				; _this$
	ldsflda		??_7BPositionIO@@6B@
	unaligned	1		; u32 0x1
	stind.i4	
	leave.s		$L6010
$L6011:
	ldsfld		__unep@??1BDataIO@@$$FUAE@XZ
	ldarg.0				; _this$
	call		?__CxxCallUnwindDtor@@$$J0YAXP6EXPAX@Z0@Z
	endfinally	
$L6010:

; 44   : }

	ldarg.0				; _this$
$L6012:
	ret		
 .end ??0BPositionIO@@$$FQAE@XZ				; BPositionIO::BPositionIO
;	.proc.end.i4
text	ENDS
PUBLIC	??0BPositionIO@@QAE@XZ				; BPositionIO::BPositionIO
PUBLIC	__mep@??0BPositionIO@@$$FQAE@XZ
;	COMDAT __mep@??0BPositionIO@@$$FQAE@XZ
data	SEGMENT
__mep@??0BPositionIO@@$$FQAE@XZ TOKEN 0600003C
; Function compile flags: /Odt
data	ENDS
;	COMDAT ??0BPositionIO@@QAE@XZ
text	SEGMENT
??0BPositionIO@@QAE@XZ PROC NEAR			; BPositionIO::BPositionIO, COMDAT
	jmp	DWORD PTR __mep@??0BPositionIO@@$$FQAE@XZ
??0BPositionIO@@QAE@XZ ENDP				; BPositionIO::BPositionIO
.global	__unep@??1BPositionIO@@$$FUAE@XZ
	.rdata
	.comdat	any, __unep@??1BPositionIO@@$$FUAE@XZ

__unep@??1BPositionIO@@$$FUAE@XZ:
	DD	??1BPositionIO@@UAE@XZ
; Function compile flags: /Odt
	.text
	.comdat	any, ??_EBPositionIO@@$$FUAEPAXI@Z
.global	??_EBPositionIO@@$$FUAEPAXI@Z			; BPositionIO::`vector deleting destructor'
??_EBPositionIO@@$$FUAEPAXI@Z:				; BPositionIO::`vector deleting destructor'
;	.proc.def	D:I(II)

; Function Header:
; max stack depth = 4
; function size = 60 bytes
; local varsig tk = 0x0 
; Exception Information:
; 0 handlers, each consisting of filtered handlers

;	.formal.u4 1,"___flags$"
;	.formal.i4 0,"_this$" SIG: Optional C Binding Modifier(token:0xA7675A).Optional C Binding Modifier(token:0xA7675C).ptr.valueType (token:0xA7675F)

;	.proc.beg
	ldarg.1				; ___flags$
	ldc.i.2		2		; u32 0x2
	and		
	brfalse.s	$L5497
	ldarg.0				; _this$
	ldc.i.4		4		; u32 0x4
	ldarg.0				; _this$
	ldc.i.4		4		; i32 0x4
	sub		
	ldind.i4	
	ldsfld		__unep@??1BPositionIO@@$$FUAE@XZ
	call		??_M@$$FYGXPAXIHP6EX0@Z@Z
	ldarg.1				; ___flags$
	ldc.i.1		1		; u32 0x1
	and		
	brfalse.s	$L5498
	ldarg.0				; _this$
	ldc.i.4		4		; i32 0x4
	sub		
	call		??_V@$$FYAXPAX@Z
$L5498:
	ldarg.0				; _this$
	ldc.i.4		4		; i32 0x4
	sub		
	br.s		$L6040
$L5497:
	ldarg.0				; _this$
	call		??1BPositionIO@@$$FUAE@XZ
	ldarg.1				; ___flags$
	ldc.i.1		1		; u32 0x1
	and		
	brfalse.s	$L5500
	ldarg.0				; _this$
	call		??3@$$FYAXPAX@Z
$L5500:
	ldarg.0				; _this$
	br.s		$L6040
$L6040:
	ret		
 .end ??_EBPositionIO@@$$FUAEPAXI@Z			; BPositionIO::`vector deleting destructor'
;	.proc.end.i4
text	ENDS
PUBLIC	__mep@??_EBPositionIO@@$$FUAEPAXI@Z
;	COMDAT __mep@??_EBPositionIO@@$$FUAEPAXI@Z
data	SEGMENT
__mep@??_EBPositionIO@@$$FUAEPAXI@Z TOKEN 0600003D
; Function compile flags: /Odt
data	ENDS
;	COMDAT ??_EBPositionIO@@UAEPAXI@Z
text	SEGMENT
??_EBPositionIO@@UAEPAXI@Z PROC NEAR			; BPositionIO::`vector deleting destructor', COMDAT
	jmp	DWORD PTR __mep@??_EBPositionIO@@$$FUAEPAXI@Z
??_EBPositionIO@@UAEPAXI@Z ENDP				; BPositionIO::`vector deleting destructor'
; Function compile flags: /Odt
	.text
.global	??1BPositionIO@@$$FUAE@XZ			; BPositionIO::~BPositionIO
??1BPositionIO@@$$FUAE@XZ:				; BPositionIO::~BPositionIO
;	.proc.def	D:V(I)

; Function Header:
; max stack depth = 2
; function size = 17 bytes
; local varsig tk = 0x0 
; Exception Information:
; 0 handlers, each consisting of filtered handlers

;	.formal.i4 0,"_this$" SIG: Optional C Binding Modifier(token:0xA7675A).Optional C Binding Modifier(token:0xA7675C).ptr.valueType (token:0xA7675F)

;	.proc.beg

; 47   : {

	ldarg.0				; _this$
	ldsflda		??_7BPositionIO@@6B@
	unaligned	1		; u32 0x1
	stind.i4	

; 48   : }

	ldarg.0				; _this$
	call		??1BDataIO@@$$FUAE@XZ
$L6054:
	ret		
 .end ??1BPositionIO@@$$FUAE@XZ				; BPositionIO::~BPositionIO
;	.proc.end.void
text	ENDS
PUBLIC	__mep@??1BPositionIO@@$$FUAE@XZ
;	COMDAT __mep@??1BPositionIO@@$$FUAE@XZ
data	SEGMENT
__mep@??1BPositionIO@@$$FUAE@XZ TOKEN 0600003E
; Function compile flags: /Odt
data	ENDS
;	COMDAT ??1BPositionIO@@UAE@XZ
text	SEGMENT
??1BPositionIO@@UAE@XZ PROC NEAR			; BPositionIO::~BPositionIO, COMDAT
	jmp	DWORD PTR __mep@??1BPositionIO@@$$FUAE@XZ
??1BPositionIO@@UAE@XZ ENDP				; BPositionIO::~BPositionIO
.global	
.global	
	.bss
.local	$SigTok$0304201109080a0f0109,4
.local	,4
.local	,4
; Function compile flags: /Odt
	.text
.global	?Read@BPositionIO@@$$FUAEIPAXI@Z		; BPositionIO::Read
?Read@BPositionIO@@$$FUAEIPAXI@Z:			; BPositionIO::Read
;	.proc.def	D:I(III)

; Function Header:
; max stack depth = 6
; function size = 19 bytes
; local varsig tk = 0x0 
; Exception Information:
; 0 handlers, each consisting of filtered handlers

;	.formal.i4 1,"_buffer$" SIG: ptr.void
;	.formal.u4 2,"_size$"
;	.formal.i4 0,"_this$" SIG: Optional C Binding Modifier(token:0xA7675A).Optional C Binding Modifier(token:0xA7675C).ptr.valueType (token:0xA7675F)

;	.proc.beg

; 52   : 	return ReadAt(0, buffer, size);

	ldarg.0				; _this$
	ldc.i.0		0		; i64 0x0
	conv.i8		
	ldarg.1				; _buffer$
	ldarg.2				; _size$
	ldarg.0				; _this$
	ldind.i4	
	ldc.i4.s	12		; i32 0xc
	add		
	ldind.i4	
	calli		D:I(IJII)
	br.s		$L6061
$L6061:

; 53   : }

	ret		
 .end ?Read@BPositionIO@@$$FUAEIPAXI@Z			; BPositionIO::Read
;	.proc.end.u4
text	ENDS
PUBLIC	__mep@?Read@BPositionIO@@$$FUAEIPAXI@Z
;	COMDAT __mep@?Read@BPositionIO@@$$FUAEIPAXI@Z
data	SEGMENT
__mep@?Read@BPositionIO@@$$FUAEIPAXI@Z TOKEN 0600003F
; Function compile flags: /Odt
data	ENDS
;	COMDAT ?Read@BPositionIO@@UAEIPAXI@Z
text	SEGMENT
?Read@BPositionIO@@UAEIPAXI@Z PROC NEAR			; BPositionIO::Read, COMDAT
	jmp	DWORD PTR __mep@?Read@BPositionIO@@$$FUAEIPAXI@Z
?Read@BPositionIO@@UAEIPAXI@Z ENDP			; BPositionIO::Read
.global	
	.bss
.local	$SigTok$0304201109080a0f202d0109,4
.local	,4
; Function compile flags: /Odt
	.text
.global	?Write@BPositionIO@@$$FUAEIPBXI@Z		; BPositionIO::Write
?Write@BPositionIO@@$$FUAEIPBXI@Z:			; BPositionIO::Write
;	.proc.def	D:I(III)

; Function Header:
; max stack depth = 6
; function size = 19 bytes
; local varsig tk = 0x0 
; Exception Information:
; 0 handlers, each consisting of filtered handlers

;	.formal.i4 1,"_buffer$" SIG: ptr.Optional C Binding Modifier(token:0x9F6F37).void
;	.formal.u4 2,"_size$"
;	.formal.i4 0,"_this$" SIG: Optional C Binding Modifier(token:0xA7675A).Optional C Binding Modifier(token:0xA7675C).ptr.valueType (token:0xA7675F)

;	.proc.beg

; 57   : 	return WriteAt(0, buffer, size);

	ldarg.0				; _this$
	ldc.i.0		0		; i64 0x0
	conv.i8		
	ldarg.1				; _buffer$
	ldarg.2				; _size$
	ldarg.0				; _this$
	ldind.i4	
	ldc.i4.s	16		; i32 0x10
	add		
	ldind.i4	
	calli		D:I(IJII)
	br.s		$L6070
$L6070:

; 58   : }

	ret		
 .end ?Write@BPositionIO@@$$FUAEIPBXI@Z			; BPositionIO::Write
;	.proc.end.u4
text	ENDS
PUBLIC	__mep@?Write@BPositionIO@@$$FUAEIPBXI@Z
;	COMDAT __mep@?Write@BPositionIO@@$$FUAEIPBXI@Z
data	SEGMENT
__mep@?Write@BPositionIO@@$$FUAEIPBXI@Z TOKEN 06000040
; Function compile flags: /Odt
data	ENDS
;	COMDAT ?Write@BPositionIO@@UAEIPBXI@Z
text	SEGMENT
?Write@BPositionIO@@UAEIPBXI@Z PROC NEAR		; BPositionIO::Write, COMDAT
	jmp	DWORD PTR __mep@?Write@BPositionIO@@$$FUAEIPBXI@Z
?Write@BPositionIO@@UAEIPBXI@Z ENDP			; BPositionIO::Write
.global	??_7BMallocIO@@6B@				; BMallocIO::`vftable'
.global	??_R4BMallocIO@@6B@				; BMallocIO::`RTTI Complete Object Locator'
.global	??_R0?AVBMallocIO@@@8				; BMallocIO `RTTI Type Descriptor'
.global	??_R3BMallocIO@@8				; BMallocIO::`RTTI Class Hierarchy Descriptor'
.global	??_R2BMallocIO@@8				; BMallocIO::`RTTI Base Class Array'
.global	??_R1A@?0A@A@BMallocIO@@8			; BMallocIO::`RTTI Base Class Descriptor at (0,-1,0,0)'
.global	
	.bss
.local	,4
	.data
	.comdat	largest, ??_7BMallocIO@@6B@

??_7BMallocIO@@6B@:					; BMallocIO::`vftable'
	DD	??_R4BMallocIO@@6B@
??_7BMallocIO@@6B@:					; BMallocIO::`vftable'
	DD	??_EBMallocIO@@UAEPAXI@Z
??_7BMallocIO@@6B@:					; BMallocIO::`vftable'
	DD	?Read@BPositionIO@@UAEIPAXI@Z
??_7BMallocIO@@6B@:					; BMallocIO::`vftable'
	DD	?Write@BPositionIO@@UAEIPBXI@Z
??_7BMallocIO@@6B@:					; BMallocIO::`vftable'
	DD	?ReadAt@BMallocIO@@UAEI_JPAXI@Z
??_7BMallocIO@@6B@:					; BMallocIO::`vftable'
	DD	?WriteAt@BMallocIO@@UAEI_JPBXI@Z
??_7BMallocIO@@6B@:					; BMallocIO::`vftable'
	DD	?Seek@BMallocIO@@UAE_J_JI@Z
??_7BMallocIO@@6B@:					; BMallocIO::`vftable'
	DD	?Position@BMallocIO@@UBE_JXZ
??_7BMallocIO@@6B@:					; BMallocIO::`vftable'
	DD	?SetSize@BMallocIO@@UAEH_J@Z
	.rdataseg	.rdata$r
	.comdat	any, ??_R4BMallocIO@@6B@

??_R4BMallocIO@@6B@:					; BMallocIO::`RTTI Complete Object Locator'
	.word	0x0
??_R4BMallocIO@@6B@:					; BMallocIO::`RTTI Complete Object Locator'
	.word	0x0
??_R4BMallocIO@@6B@:					; BMallocIO::`RTTI Complete Object Locator'
	.word	0x0
??_R4BMallocIO@@6B@:					; BMallocIO::`RTTI Complete Object Locator'
	DD	??_R0?AVBMallocIO@@@8
??_R4BMallocIO@@6B@:					; BMallocIO::`RTTI Complete Object Locator'
	DD	??_R3BMallocIO@@8
	.data
	.comdat	any, ??_R0?AVBMallocIO@@@8

??_R0?AVBMallocIO@@@8:					; BMallocIO `RTTI Type Descriptor'
	DD	??_7type_info@@6B@
??_R0?AVBMallocIO@@@8:					; BMallocIO `RTTI Type Descriptor'
	.word	0x0
??_R0?AVBMallocIO@@@8:					; BMallocIO `RTTI Type Descriptor'
	.ascii	".?AVBMallocIO@@\000"
	.rdataseg	.rdata$r
	.comdat	any, ??_R3BMallocIO@@8

??_R3BMallocIO@@8:					; BMallocIO::`RTTI Class Hierarchy Descriptor'
	.word	0x0
??_R3BMallocIO@@8:					; BMallocIO::`RTTI Class Hierarchy Descriptor'
	.word	0x0
??_R3BMallocIO@@8:					; BMallocIO::`RTTI Class Hierarchy Descriptor'
	.word	0x3
??_R3BMallocIO@@8:					; BMallocIO::`RTTI Class Hierarchy Descriptor'
	DD	??_R2BMallocIO@@8
	.rdataseg	.rdata$r
	.comdat	any, ??_R2BMallocIO@@8

??_R2BMallocIO@@8:					; BMallocIO::`RTTI Base Class Array'
	DD	??_R1A@?0A@A@BMallocIO@@8
??_R2BMallocIO@@8:					; BMallocIO::`RTTI Base Class Array'
	DD	??_R1A@?0A@A@BPositionIO@@8
??_R2BMallocIO@@8:					; BMallocIO::`RTTI Base Class Array'
	DD	??_R1A@?0A@A@BDataIO@@8
	.rdataseg	.rdata$r
	.comdat	any, ??_R1A@?0A@A@BMallocIO@@8

??_R1A@?0A@A@BMallocIO@@8:				; BMallocIO::`RTTI Base Class Descriptor at (0,-1,0,0)'
	DD	??_R0?AVBMallocIO@@@8
??_R1A@?0A@A@BMallocIO@@8:				; BMallocIO::`RTTI Base Class Descriptor at (0,-1,0,0)'
	.word	0x2
??_R1A@?0A@A@BMallocIO@@8:				; BMallocIO::`RTTI Base Class Descriptor at (0,-1,0,0)'
	.word	0x0
??_R1A@?0A@A@BMallocIO@@8:				; BMallocIO::`RTTI Base Class Descriptor at (0,-1,0,0)'
	.word	0xffffffff
??_R1A@?0A@A@BMallocIO@@8:				; BMallocIO::`RTTI Base Class Descriptor at (0,-1,0,0)'
	.word	0x0
??_R1A@?0A@A@BMallocIO@@8:				; BMallocIO::`RTTI Base Class Descriptor at (0,-1,0,0)'
	.word	0x0
; Function compile flags: /Odt
	.text
.global	??0BMallocIO@@$$FQAE@XZ				; BMallocIO::BMallocIO
??0BMallocIO@@$$FQAE@XZ:				; BMallocIO::BMallocIO
;	.proc.def	D:I(I)

; Function Header:
; max stack depth = 2
; function size = 80 bytes
; local varsig tk = 0x0 
; Exception Information:
; 1 handlers, each consisting of filtered handlers

;	.formal.i4 0,"_this$" SIG: Optional C Binding Modifier(token:0xA752E2).Optional C Binding Modifier(token:0xA752E4).ptr.valueType (token:0xA752E7)

;	.proc.beg

; 62   : {

	ldarg.0				; _this$
	call		??0BPositionIO@@$$FQAE@XZ
	pop		
$L6089:
	ldarg.0				; _this$
	ldsflda		??_7BMallocIO@@6B@
	unaligned	1		; u32 0x1
	stind.i4	
	ldarg.0				; _this$
	ldc.i.4		4		; i32 0x4
	add		
	ldc.i.0		0		; i32 0x0
	unaligned	1		; u32 0x1
	stind.i4	
	ldarg.0				; _this$
	ldc.i.8		8		; i32 0x8
	add		
	ldc.i4		256		; u32 0x100
	unaligned	1		; u32 0x1
	stind.i4	
	ldarg.0				; _this$
	ldc.i4.s	12		; i32 0xc
	add		
	ldc.i.0		0		; u32 0x0
	unaligned	1		; u32 0x1
	stind.i4	
	ldarg.0				; _this$
	ldc.i4.s	16		; i32 0x10
	add		
	ldc.i.0		0		; u32 0x0
	unaligned	1		; u32 0x1
	stind.i4	
	ldarg.0				; _this$
	ldc.i4.s	20		; i32 0x14
	add		
	ldc.i.0		0		; u32 0x0
	unaligned	1		; u32 0x1
	stind.i4	
	leave.s		$L6090
$L6091:
	ldsfld		__unep@??1BPositionIO@@$$FUAE@XZ
	ldarg.0				; _this$
	call		?__CxxCallUnwindDtor@@$$J0YAXP6EXPAX@Z0@Z
	endfinally	
$L6090:

; 63   : }

	ldarg.0				; _this$
$L6092:
	ret		
 .end ??0BMallocIO@@$$FQAE@XZ				; BMallocIO::BMallocIO
;	.proc.end.i4
text	ENDS
PUBLIC	??0BMallocIO@@QAE@XZ				; BMallocIO::BMallocIO
PUBLIC	__mep@??0BMallocIO@@$$FQAE@XZ
;	COMDAT __mep@??0BMallocIO@@$$FQAE@XZ
data	SEGMENT
__mep@??0BMallocIO@@$$FQAE@XZ TOKEN 06000041
; Function compile flags: /Odt
data	ENDS
;	COMDAT ??0BMallocIO@@QAE@XZ
text	SEGMENT
??0BMallocIO@@QAE@XZ PROC NEAR				; BMallocIO::BMallocIO, COMDAT
	jmp	DWORD PTR __mep@??0BMallocIO@@$$FQAE@XZ
??0BMallocIO@@QAE@XZ ENDP				; BMallocIO::BMallocIO
.global	__unep@??1BMallocIO@@$$FUAE@XZ
	.rdata
	.comdat	any, __unep@??1BMallocIO@@$$FUAE@XZ

__unep@??1BMallocIO@@$$FUAE@XZ:
	DD	??1BMallocIO@@UAE@XZ
; Function compile flags: /Odt
	.text
	.comdat	any, ??_EBMallocIO@@$$FUAEPAXI@Z
.global	??_EBMallocIO@@$$FUAEPAXI@Z			; BMallocIO::`vector deleting destructor'
??_EBMallocIO@@$$FUAEPAXI@Z:				; BMallocIO::`vector deleting destructor'
;	.proc.def	D:I(II)

; Function Header:
; max stack depth = 4
; function size = 61 bytes
; local varsig tk = 0x0 
; Exception Information:
; 0 handlers, each consisting of filtered handlers

;	.formal.u4 1,"___flags$"
;	.formal.i4 0,"_this$" SIG: Optional C Binding Modifier(token:0xA752E2).Optional C Binding Modifier(token:0xA752E4).ptr.valueType (token:0xA752E7)

;	.proc.beg
	ldarg.1				; ___flags$
	ldc.i.2		2		; u32 0x2
	and		
	brfalse.s	$L5528
	ldarg.0				; _this$
	ldc.i4.s	24		; u32 0x18
	ldarg.0				; _this$
	ldc.i.4		4		; i32 0x4
	sub		
	ldind.i4	
	ldsfld		__unep@??1BMallocIO@@$$FUAE@XZ
	call		??_M@$$FYGXPAXIHP6EX0@Z@Z
	ldarg.1				; ___flags$
	ldc.i.1		1		; u32 0x1
	and		
	brfalse.s	$L5529
	ldarg.0				; _this$
	ldc.i.4		4		; i32 0x4
	sub		
	call		??_V@$$FYAXPAX@Z
$L5529:
	ldarg.0				; _this$
	ldc.i.4		4		; i32 0x4
	sub		
	br.s		$L6135
$L5528:
	ldarg.0				; _this$
	call		??1BMallocIO@@$$FUAE@XZ
	ldarg.1				; ___flags$
	ldc.i.1		1		; u32 0x1
	and		
	brfalse.s	$L5531
	ldarg.0				; _this$
	call		??3@$$FYAXPAX@Z
$L5531:
	ldarg.0				; _this$
	br.s		$L6135
$L6135:
	ret		
 .end ??_EBMallocIO@@$$FUAEPAXI@Z			; BMallocIO::`vector deleting destructor'
;	.proc.end.i4
text	ENDS
PUBLIC	__mep@??_EBMallocIO@@$$FUAEPAXI@Z
;	COMDAT __mep@??_EBMallocIO@@$$FUAEPAXI@Z
data	SEGMENT
__mep@??_EBMallocIO@@$$FUAEPAXI@Z TOKEN 06000042
; Function compile flags: /Odt
data	ENDS
;	COMDAT ??_EBMallocIO@@UAEPAXI@Z
text	SEGMENT
??_EBMallocIO@@UAEPAXI@Z PROC NEAR			; BMallocIO::`vector deleting destructor', COMDAT
	jmp	DWORD PTR __mep@??_EBMallocIO@@$$FUAEPAXI@Z
??_EBMallocIO@@UAEPAXI@Z ENDP				; BMallocIO::`vector deleting destructor'
; Function compile flags: /Odt
	.text
.global	??1BMallocIO@@$$FUAE@XZ				; BMallocIO::~BMallocIO
??1BMallocIO@@$$FUAE@XZ:				; BMallocIO::~BMallocIO
;	.proc.def	D:V(I)

; Function Header:
; max stack depth = 2
; function size = 54 bytes
; local varsig tk = 0x0 
; Exception Information:
; 1 handlers, each consisting of filtered handlers

;	.formal.i4 0,"_this$" SIG: Optional C Binding Modifier(token:0xA752E2).Optional C Binding Modifier(token:0xA752E4).ptr.valueType (token:0xA752E7)

;	.proc.beg

; 66   : {

	ldarg.0				; _this$
	ldsflda		??_7BMallocIO@@6B@
	unaligned	1		; u32 0x1
	stind.i4	
$L6149:

; 67   : 	if(fData != NULL) free(fData);

	ldarg.0				; _this$
	ldc.i.4		4		; i32 0x4
	add		
	unaligned	1		; u32 0x1
	ldind.i4	
	brtrue.s	$L6152
	leave.s		$L5534
$L6152:
	ldarg.0				; _this$
	ldc.i.4		4		; i32 0x4
	add		
	unaligned	1		; u32 0x1
	ldind.i4	
	call		?free@@$$J0YAXPAX@Z
	leave.s		$L6150
$L6151:
	ldsfld		__unep@??1BPositionIO@@$$FUAE@XZ
	ldarg.0				; _this$
	call		?__CxxCallUnwindDtor@@$$J0YAXP6EXPAX@Z0@Z
	endfinally	
$L6150:
$L5534:

; 68   : }

	ldarg.0				; _this$
	call		??1BPositionIO@@$$FUAE@XZ
$L6153:
	ret		
 .end ??1BMallocIO@@$$FUAE@XZ				; BMallocIO::~BMallocIO
;	.proc.end.void
text	ENDS
PUBLIC	__mep@??1BMallocIO@@$$FUAE@XZ
;	COMDAT __mep@??1BMallocIO@@$$FUAE@XZ
data	SEGMENT
__mep@??1BMallocIO@@$$FUAE@XZ TOKEN 06000043
; Function compile flags: /Odt
data	ENDS
;	COMDAT ??1BMallocIO@@UAE@XZ
text	SEGMENT
??1BMallocIO@@UAE@XZ PROC NEAR				; BMallocIO::~BMallocIO, COMDAT
	jmp	DWORD PTR __mep@??1BMallocIO@@$$FUAE@XZ
??1BMallocIO@@UAE@XZ ENDP				; BMallocIO::~BMallocIO
.global	
	.bss
.local	,4
; Function compile flags: /Odt
	.text
.global	?ReadAt@BMallocIO@@$$FUAEI_JPAXI@Z		; BMallocIO::ReadAt
?ReadAt@BMallocIO@@$$FUAEI_JPAXI@Z:			; BMallocIO::ReadAt
;	.proc.def	D:I(IJII)

; Function Header:
; max stack depth = 4
; function size = 144 bytes
; local varsig tk = 0x0 
; Exception Information:
; 0 handlers, each consisting of filtered handlers

;	.formal.i8 1,"_pos$"
;	.formal.i4 2,"_buffer$" SIG: ptr.void
;	.formal.u4 3,"_size$"
;	.formal.i4 0,"_this$" SIG: Optional C Binding Modifier(token:0xA752E2).Optional C Binding Modifier(token:0xA752E4).ptr.valueType (token:0xA752E7)

;	.proc.beg

; 72   : 	if(buffer == NULL) return B_BAD_VALUE;

	ldarg.2				; _buffer$
	brtrue.s	$L5542
	ldc.i4		-2147483643	; u32 0x80000005
	br		$L6162
$L5542:

; 73   : 
; 74   : 	if(size == 0 || BMallocIO::Seek(pos, B_SEEK_CUR) < 0) return 0;

	ldarg.3				; _size$
	brfalse.s	$L5544
	ldarg.0				; _this$
	ldarg.1				; _pos$
	ldc.i.1		1		; u32 0x1
	call		?Seek@BMallocIO@@$$FUAE_J_JI@Z
	ldc.i.0		0		; i64 0x0
	conv.i8		
	bge.s		$L5543
$L5544:
	ldc.i.0		0		; u32 0x0
	br.s		$L6162
$L5543:

; 75   : 	if(fPosition >= fLength) return 0;

	ldarg.0				; _this$
	ldc.i4.s	20		; i32 0x14
	add		
	unaligned	1		; u32 0x1
	ldind.i4	
	ldarg.0				; _this$
	ldc.i4.s	16		; i32 0x10
	add		
	unaligned	1		; u32 0x1
	ldind.i4	
	blt.un.s	$L5545
	ldc.i.0		0		; u32 0x0
	br.s		$L6162
$L5545:

; 76   : 
; 77   : 	size = min_c(size, fLength - fPosition);

	ldarg.3				; _size$
	ldarg.0				; _this$
	ldc.i4.s	16		; i32 0x10
	add		
	unaligned	1		; u32 0x1
	ldind.i4	
	ldarg.0				; _this$
	ldc.i4.s	20		; i32 0x14
	add		
	unaligned	1		; u32 0x1
	ldind.i4	
	sub		
	ble.un.s	$L6157
	ldarg.0				; _this$
	ldc.i4.s	16		; i32 0x10
	add		
	unaligned	1		; u32 0x1
	ldind.i4	
	ldarg.0				; _this$
	ldc.i4.s	20		; i32 0x14
	add		
	unaligned	1		; u32 0x1
	ldind.i4	
	sub		
	br.s		$L6158
$L6157:
	ldarg.3				; _size$
$L6158:
	starg.s		3		; _size$

; 78   : 	if(memcpy(buffer, fData + fPosition, size) == NULL) return B_ERROR;

	ldarg.2				; _buffer$
	ldarg.0				; _this$
	ldc.i.4		4		; i32 0x4
	add		
	unaligned	1		; u32 0x1
	ldind.i4	
	ldarg.0				; _this$
	ldc.i4.s	20		; i32 0x14
	add		
	unaligned	1		; u32 0x1
	ldind.i4	
	add		
	ldarg.3				; _size$
	call		?memcpy@@$$J0YAPAXPAXPBXI@Z
	brtrue.s	$L5546
	ldc.i.-1	-1		; u32 0xffffffff
	br.s		$L6162
$L5546:

; 79   : 
; 80   : 	fPosition += size;

	ldarg.0				; _this$
	ldc.i4.s	20		; i32 0x14
	add		
	ldarg.0				; _this$
	ldc.i4.s	20		; i32 0x14
	add		
	unaligned	1		; u32 0x1
	ldind.i4	
	ldarg.3				; _size$
	add		
	unaligned	1		; u32 0x1
	stind.i4	

; 81   : 	return size;

	ldarg.3				; _size$
	br.s		$L6162
$L6162:

; 82   : }

	ret		
 .end ?ReadAt@BMallocIO@@$$FUAEI_JPAXI@Z		; BMallocIO::ReadAt
;	.proc.end.u4
text	ENDS
PUBLIC	__mep@?ReadAt@BMallocIO@@$$FUAEI_JPAXI@Z
;	COMDAT __mep@?ReadAt@BMallocIO@@$$FUAEI_JPAXI@Z
data	SEGMENT
__mep@?ReadAt@BMallocIO@@$$FUAEI_JPAXI@Z TOKEN 06000044
; Function compile flags: /Odt
data	ENDS
;	COMDAT ?ReadAt@BMallocIO@@UAEI_JPAXI@Z
text	SEGMENT
?ReadAt@BMallocIO@@UAEI_JPAXI@Z PROC NEAR		; BMallocIO::ReadAt, COMDAT
	jmp	DWORD PTR __mep@?ReadAt@BMallocIO@@$$FUAEI_JPAXI@Z
?ReadAt@BMallocIO@@UAEI_JPAXI@Z ENDP			; BMallocIO::ReadAt
	.bss
.local	$T6175,4
; Function compile flags: /Odt
	.text
.global	?WriteAt@BMallocIO@@$$FUAEI_JPBXI@Z		; BMallocIO::WriteAt
?WriteAt@BMallocIO@@$$FUAEI_JPBXI@Z:			; BMallocIO::WriteAt
;	.proc.def	D:I(IJII)

; Function Header:
; max stack depth = 4
; function size = 237 bytes
; local varsig tk = 0x1100000C 
; Exception Information:
; 0 handlers, each consisting of filtered handlers

;	.formal.i8 1,"_pos$"
;	.formal.i4 2,"_buffer$" SIG: ptr.Optional C Binding Modifier(token:0x9F6F37).void
;	.formal.u4 3,"_size$"
;	.formal.i4 0,"_this$" SIG: Optional C Binding Modifier(token:0xA752E2).Optional C Binding Modifier(token:0xA752E4).ptr.valueType (token:0xA752E7)

;	.proc.beg

; 86   : 	if(buffer == NULL) return B_BAD_VALUE;

	ldarg.2				; _buffer$
	brtrue.s	$L5553
	ldc.i4		-2147483643	; u32 0x80000005
	br		$L6174
$L5553:

; 87   : 
; 88   : 	if(size == 0 || BMallocIO::Seek(pos, B_SEEK_CUR) < 0) return 0;

	ldarg.3				; _size$
	brfalse.s	$L5555
	ldarg.0				; _this$
	ldarg.1				; _pos$
	ldc.i.1		1		; u32 0x1
	call		?Seek@BMallocIO@@$$FUAE_J_JI@Z
	ldc.i.0		0		; i64 0x0
	conv.i8		
	bge.s		$L5554
$L5555:
	ldc.i.0		0		; u32 0x0
	br		$L6174
$L5554:

; 89   : 
; 90   : 	if(fMallocSize >= fPosition + size ||
; 91   : 	   BMallocIO::SetSize((b_int64)(fPosition + size)) == B_OK ||
; 92   : 	   (fMallocSize >= fPosition ? (size = min_c(size, fMallocSize - fPosition)) > 0 : false))

	ldarg.0				; _this$
	ldc.i4.s	12		; i32 0xc
	add		
	unaligned	1		; u32 0x1
	ldind.i4	
	ldarg.0				; _this$
	ldc.i4.s	20		; i32 0x14
	add		
	unaligned	1		; u32 0x1
	ldind.i4	
	ldarg.3				; _size$
	add		
	bge.un.s	$L5558
	ldarg.0				; _this$
	ldarg.0				; _this$
	ldc.i4.s	20		; i32 0x14
	add		
	unaligned	1		; u32 0x1
	ldind.i4	
	ldarg.3				; _size$
	add		
	conv.u8		
	call		?SetSize@BMallocIO@@$$FUAEH_J@Z
	ldc.i.1		1		; i32 0x1
	beq.s		$L5558
	ldarg.0				; _this$
	ldc.i4.s	12		; i32 0xc
	add		
	unaligned	1		; u32 0x1
	ldind.i4	
	ldarg.0				; _this$
	ldc.i4.s	20		; i32 0x14
	add		
	unaligned	1		; u32 0x1
	ldind.i4	
	blt.un.s	$L6169
	ldarg.3				; _size$
	ldarg.0				; _this$
	ldc.i4.s	12		; i32 0xc
	add		
	unaligned	1		; u32 0x1
	ldind.i4	
	ldarg.0				; _this$
	ldc.i4.s	20		; i32 0x14
	add		
	unaligned	1		; u32 0x1
	ldind.i4	
	sub		
	ble.un.s	$L6167
	ldarg.0				; _this$
	ldc.i4.s	12		; i32 0xc
	add		
	unaligned	1		; u32 0x1
	ldind.i4	
	ldarg.0				; _this$
	ldc.i4.s	20		; i32 0x14
	add		
	unaligned	1		; u32 0x1
	ldind.i4	
	sub		
	br.s		$L6168
$L6167:
	ldarg.3				; _size$
$L6168:
	starg.s		3		; _size$
	ldarg.3				; _size$
	ldc.i.0		0		; u32 0x0
	cgt.un		
	stloc.0				
	br.s		$L6170
$L6169:
	ldc.i.0		0		; i32 0x0
	stloc.0				
$L6170:
	ldloc.0				
	brfalse.s	$L5557
$L5558:

; 93   : 	{
; 94   : 		if(memcpy(fData + fPosition, buffer, size) == NULL) return B_ERROR;

	ldarg.0				; _this$
	ldc.i.4		4		; i32 0x4
	add		
	unaligned	1		; u32 0x1
	ldind.i4	
	ldarg.0				; _this$
	ldc.i4.s	20		; i32 0x14
	add		
	unaligned	1		; u32 0x1
	ldind.i4	
	add		
	ldarg.2				; _buffer$
	ldarg.3				; _size$
	call		?memcpy@@$$J0YAPAXPAXPBXI@Z
	brtrue.s	$L5559
	ldc.i.-1	-1		; u32 0xffffffff
	br.s		$L6174
$L5559:

; 95   : 		fPosition += size;

	ldarg.0				; _this$
	ldc.i4.s	20		; i32 0x14
	add		
	ldarg.0				; _this$
	ldc.i4.s	20		; i32 0x14
	add		
	unaligned	1		; u32 0x1
	ldind.i4	
	ldarg.3				; _size$
	add		
	unaligned	1		; u32 0x1
	stind.i4	

; 96   : 		if(fLength < fPosition) fLength = fPosition;

	ldarg.0				; _this$
	ldc.i4.s	16		; i32 0x10
	add		
	unaligned	1		; u32 0x1
	ldind.i4	
	ldarg.0				; _this$
	ldc.i4.s	20		; i32 0x14
	add		
	unaligned	1		; u32 0x1
	ldind.i4	
	bge.un.s	$L5560
	ldarg.0				; _this$
	ldc.i4.s	16		; i32 0x10
	add		
	ldarg.0				; _this$
	ldc.i4.s	20		; i32 0x14
	add		
	unaligned	1		; u32 0x1
	ldind.i4	
	unaligned	1		; u32 0x1
	stind.i4	
$L5560:

; 97   : 		return size;

	ldarg.3				; _size$
	br.s		$L6174
$L5557:

; 98   : 	}
; 99   : 	return B_NO_MEMORY;

	ldc.i4		-2147483648	; u32 0x80000000
	br.s		$L6174
$L6174:

; 100  : }

	ret		
 .end ?WriteAt@BMallocIO@@$$FUAEI_JPBXI@Z		; BMallocIO::WriteAt
;	.proc.end.u4
text	ENDS
PUBLIC	__mep@?WriteAt@BMallocIO@@$$FUAEI_JPBXI@Z
;	COMDAT __mep@?WriteAt@BMallocIO@@$$FUAEI_JPBXI@Z
data	SEGMENT
__mep@?WriteAt@BMallocIO@@$$FUAEI_JPBXI@Z TOKEN 06000045
; Function compile flags: /Odt
data	ENDS
;	COMDAT ?WriteAt@BMallocIO@@UAEI_JPBXI@Z
text	SEGMENT
?WriteAt@BMallocIO@@UAEI_JPBXI@Z PROC NEAR		; BMallocIO::WriteAt, COMDAT
	jmp	DWORD PTR __mep@?WriteAt@BMallocIO@@$$FUAEI_JPBXI@Z
?WriteAt@BMallocIO@@UAEI_JPBXI@Z ENDP			; BMallocIO::WriteAt
	.bss
.local	$T6195,4
; Function compile flags: /Odt
	.text
.global	?Seek@BMallocIO@@$$FUAE_J_JI@Z			; BMallocIO::Seek
?Seek@BMallocIO@@$$FUAE_J_JI@Z:				; BMallocIO::Seek
;	.proc.def	D:J(IJI)

; Function Header:
; max stack depth = 4
; function size = 277 bytes
; local varsig tk = 0x1100000D 
; Exception Information:
; 0 handlers, each consisting of filtered handlers

;	.formal.i8 1,"_position$"
;	.formal.u4 2,"_seek_mode$"
;	.formal.i4 0,"_this$" SIG: Optional C Binding Modifier(token:0xA752E2).Optional C Binding Modifier(token:0xA752E4).ptr.valueType (token:0xA752E7)
;	.local.i8 0,"_retVal$"

;	.proc.beg

; 104  : 	b_int64 retVal = B_INT64_CONSTANT(-1);

	ldc.i8		-1		; i64 0xffffffffffffffff
	stloc.0				; _retVal$

; 105  : 
; 106  : 	switch(seek_mode)

	ldarg.2				; _seek_mode$
	stloc.1				
	ldloc.1				
	brfalse.s	$L5572
	ldloc.1				
	ldc.i.1		1		; u32 0x1
	beq.s		$L5577
	ldloc.1				
	ldc.i.2		2		; u32 0x2
	beq		$L5587
	br		$L5569
$L5572:

; 107  : 	{
; 108  : 		case B_SEEK_SET:
; 109  : 			if(!(position < 0 || position > (b_int64)~((size_t)0)))

	ldarg.1				; _position$
	ldc.i.0		0		; i64 0x0
	conv.i8		
	blt.s		$L5575
	ldarg.1				; _position$
	ldc.i8		4294967295	; i64 0xffffffff
	bgt.s		$L5575

; 110  : 				fPosition = (size_t)(retVal = position);

	ldarg.1				; _position$
	stloc.0				; _retVal$
	ldarg.0				; _this$
	ldc.i4.s	20		; i32 0x14
	add		
	ldloc.0				; _retVal$
	conv.i4		
	unaligned	1		; u32 0x1
	stind.i4	
$L5575:

; 111  : 			break;

	br		$L5569
$L5577:

; 112  : 
; 113  : 		case B_SEEK_CUR:
; 114  : 			if(position < 0 ? (b_int64)fPosition >= -position : position <= (b_int64)(~((size_t)0) - fPosition))

	ldarg.1				; _position$
	ldc.i.0		0		; i64 0x0
	conv.i8		
	bge.s		$L6183
	ldarg.0				; _this$
	ldc.i4.s	20		; i32 0x14
	add		
	unaligned	1		; u32 0x1
	ldind.i4	
	conv.u8		
	ldarg.1				; _position$
	neg		
	blt.s		$L6181
	ldc.i.1		1		; i32 0x1
	br.s		$L6182
$L6181:
	ldc.i.0		0		; i32 0x0
$L6182:
	stloc.3				
	br.s		$L6184
$L6183:
	ldarg.1				; _position$
	ldc.i.-1	-1		; u32 0xffffffff
	ldarg.0				; _this$
	ldc.i4.s	20		; i32 0x14
	add		
	unaligned	1		; u32 0x1
	ldind.i4	
	sub		
	conv.u8		
	bgt.s		$L6179
	ldc.i.1		1		; i32 0x1
	br.s		$L6180
$L6179:
	ldc.i.0		0		; i32 0x0
$L6180:
	stloc.3				
$L6184:
	ldloc.3				
	brfalse.s	$L5581

; 115  : 			{
; 116  : 				if(position < 0) fPosition -= (size_t)(-position);

	ldarg.1				; _position$
	ldc.i.0		0		; i64 0x0
	conv.i8		
	bge.s		$L5582
	ldarg.0				; _this$
	ldc.i4.s	20		; i32 0x14
	add		
	ldarg.0				; _this$
	ldc.i4.s	20		; i32 0x14
	add		
	unaligned	1		; u32 0x1
	ldind.i4	
	ldarg.1				; _position$
	neg		
	conv.i4		
	sub		
	unaligned	1		; u32 0x1
	stind.i4	

; 117  : 				else fPosition += (size_t)position;

	br.s		$L5584
$L5582:
	ldarg.0				; _this$
	ldc.i4.s	20		; i32 0x14
	add		
	ldarg.0				; _this$
	ldc.i4.s	20		; i32 0x14
	add		
	unaligned	1		; u32 0x1
	ldind.i4	
	ldarg.1				; _position$
	conv.i4		
	add		
	unaligned	1		; u32 0x1
	stind.i4	
$L5584:

; 118  : 				retVal = (b_int64)fPosition;

	ldarg.0				; _this$
	ldc.i4.s	20		; i32 0x14
	add		
	unaligned	1		; u32 0x1
	ldind.i4	
	conv.u8		
	stloc.0				; _retVal$
$L5581:

; 119  : 			}
; 120  : 			break;

	br.s		$L5569
$L5587:

; 121  : 
; 122  : 		case B_SEEK_END:
; 123  : 			if(position < 0 ? (b_int64)fLength >= -position : position <= (b_int64)(~((size_t)0) - fLength))

	ldarg.1				; _position$
	ldc.i.0		0		; i64 0x0
	conv.i8		
	bge.s		$L6189
	ldarg.0				; _this$
	ldc.i4.s	16		; i32 0x10
	add		
	unaligned	1		; u32 0x1
	ldind.i4	
	conv.u8		
	ldarg.1				; _position$
	neg		
	blt.s		$L6187
	ldc.i.1		1		; i32 0x1
	br.s		$L6188
$L6187:
	ldc.i.0		0		; i32 0x0
$L6188:
	stloc.2				
	br.s		$L6190
$L6189:
	ldarg.1				; _position$
	ldc.i.-1	-1		; u32 0xffffffff
	ldarg.0				; _this$
	ldc.i4.s	16		; i32 0x10
	add		
	unaligned	1		; u32 0x1
	ldind.i4	
	sub		
	conv.u8		
	bgt.s		$L6185
	ldc.i.1		1		; i32 0x1
	br.s		$L6186
$L6185:
	ldc.i.0		0		; i32 0x0
$L6186:
	stloc.2				
$L6190:
	ldloc.2				
	brfalse.s	$L5569

; 124  : 			{
; 125  : 				if(position < 0) fPosition = fLength - (size_t)(-position);

	ldarg.1				; _position$
	ldc.i.0		0		; i64 0x0
	conv.i8		
	bge.s		$L5592
	ldarg.0				; _this$
	ldc.i4.s	20		; i32 0x14
	add		
	ldarg.0				; _this$
	ldc.i4.s	16		; i32 0x10
	add		
	unaligned	1		; u32 0x1
	ldind.i4	
	ldarg.1				; _position$
	neg		
	conv.i4		
	sub		
	unaligned	1		; u32 0x1
	stind.i4	

; 126  : 				else fPosition = fLength + (size_t)position;

	br.s		$L5594
$L5592:
	ldarg.0				; _this$
	ldc.i4.s	20		; i32 0x14
	add		
	ldarg.0				; _this$
	ldc.i4.s	16		; i32 0x10
	add		
	unaligned	1		; u32 0x1
	ldind.i4	
	ldarg.1				; _position$
	conv.i4		
	add		
	unaligned	1		; u32 0x1
	stind.i4	
$L5594:

; 127  : 				retVal = (b_int64)fPosition;

	ldarg.0				; _this$
	ldc.i4.s	20		; i32 0x14
	add		
	unaligned	1		; u32 0x1
	ldind.i4	
	conv.u8		
	stloc.0				; _retVal$
$L5569:

; 128  : 			}
; 129  : 			break;
; 130  : 
; 131  : 		default:
; 132  : 			break;
; 133  : 	}
; 134  : 
; 135  : 	return retVal;

	ldloc.0				; _retVal$
	br.s		$L6194
$L6194:

; 136  : }

	ret		
 .end ?Seek@BMallocIO@@$$FUAE_J_JI@Z			; BMallocIO::Seek
;	.proc.end.i8
text	ENDS
PUBLIC	__mep@?Seek@BMallocIO@@$$FUAE_J_JI@Z
;	COMDAT __mep@?Seek@BMallocIO@@$$FUAE_J_JI@Z
data	SEGMENT
__mep@?Seek@BMallocIO@@$$FUAE_J_JI@Z TOKEN 06000046
; Function compile flags: /Odt
data	ENDS
;	COMDAT ?Seek@BMallocIO@@UAE_J_JI@Z
text	SEGMENT
?Seek@BMallocIO@@UAE_J_JI@Z PROC NEAR			; BMallocIO::Seek, COMDAT
	jmp	DWORD PTR __mep@?Seek@BMallocIO@@$$FUAE_J_JI@Z
?Seek@BMallocIO@@UAE_J_JI@Z ENDP			; BMallocIO::Seek
.global	
	.bss
.local	,4
; Function compile flags: /Odt
	.text
.global	?Position@BMallocIO@@$$FUBE_JXZ			; BMallocIO::Position
?Position@BMallocIO@@$$FUBE_JXZ:			; BMallocIO::Position
;	.proc.def	D:J(I)

; Function Header:
; max stack depth = 2
; function size = 12 bytes
; local varsig tk = 0x0 
; Exception Information:
; 0 handlers, each consisting of filtered handlers

;	.formal.i4 0,"_this$" SIG: Optional C Binding Modifier(token:0x9DFB06).Optional C Binding Modifier(token:0x9DFB08).ptr.Optional C Binding Modifier(token:0x9DFB0B).valueType (token:0x9DFB0D)

;	.proc.beg

; 140  : 	return (b_int64)fPosition;

	ldarg.0				; _this$
	ldc.i4.s	20		; i32 0x14
	add		
	unaligned	1		; u32 0x1
	ldind.i4	
	conv.u8		
	br.s		$L6202
$L6202:

; 141  : }

	ret		
 .end ?Position@BMallocIO@@$$FUBE_JXZ			; BMallocIO::Position
;	.proc.end.i8
text	ENDS
PUBLIC	__mep@?Position@BMallocIO@@$$FUBE_JXZ
;	COMDAT __mep@?Position@BMallocIO@@$$FUBE_JXZ
data	SEGMENT
__mep@?Position@BMallocIO@@$$FUBE_JXZ TOKEN 06000047
; Function compile flags: /Odt
data	ENDS
;	COMDAT ?Position@BMallocIO@@UBE_JXZ
text	SEGMENT
?Position@BMallocIO@@UBE_JXZ PROC NEAR			; BMallocIO::Position, COMDAT
	jmp	DWORD PTR __mep@?Position@BMallocIO@@$$FUBE_JXZ
?Position@BMallocIO@@UBE_JXZ ENDP			; BMallocIO::Position
.global	
	.bss
.local	,4
.local	$T6214,4
; Function compile flags: /Odt
	.text
.global	?SetSize@BMallocIO@@$$FUAEH_J@Z			; BMallocIO::SetSize
?SetSize@BMallocIO@@$$FUAEH_J@Z:			; BMallocIO::SetSize
;	.proc.def	D:I(IJ)

; Function Header:
; max stack depth = 4
; function size = 246 bytes
; local varsig tk = 0x11000010 
; Exception Information:
; 0 handlers, each consisting of filtered handlers

;	.formal.i8 1,"_size$"
;	.formal.i4 0,"_this$" SIG: Optional C Binding Modifier(token:0xA752E2).Optional C Binding Modifier(token:0xA752E4).ptr.valueType (token:0xA752E7)
;	.local.i8 0,"_alloc_size$"
;	.local.i4 1,"_data$5620" SIG: ptr.Optional C Binding Modifier(token:0xA75C07).i1

;	.proc.beg

; 145  : 	if(size < 0) return B_BAD_VALUE;

	ldarg.1				; _size$
	ldc.i.0		0		; i64 0x0
	conv.i8		
	bge.s		$L5607
	ldc.i4		-2147483643	; i32 0x80000005
	br		$L6212
$L5607:

; 146  : 	if(size == 0)

	ldarg.1				; _size$
	ldc.i.0		0		; i64 0x0
	conv.i8		
	bne.un.s	$L5608

; 147  : 	{
; 148  : 		if(fData) free(fData);

	ldarg.0				; _this$
	ldc.i.4		4		; i32 0x4
	add		
	unaligned	1		; u32 0x1
	ldind.i4	
	brfalse.s	$L5609
	ldarg.0				; _this$
	ldc.i.4		4		; i32 0x4
	add		
	unaligned	1		; u32 0x1
	ldind.i4	
	call		?free@@$$J0YAXPAX@Z
$L5609:

; 149  : 		fData = NULL;

	ldarg.0				; _this$
	ldc.i.4		4		; i32 0x4
	add		
	ldc.i.0		0		; i32 0x0
	unaligned	1		; u32 0x1
	stind.i4	

; 150  : 		fPosition = fLength = fMallocSize = 0;

	ldarg.0				; _this$
	ldc.i4.s	12		; i32 0xc
	add		
	ldc.i.0		0		; u32 0x0
	unaligned	1		; u32 0x1
	stind.i4	
	ldarg.0				; _this$
	ldc.i4.s	16		; i32 0x10
	add		
	ldc.i.0		0		; u32 0x0
	unaligned	1		; u32 0x1
	stind.i4	
	ldarg.0				; _this$
	ldc.i4.s	20		; i32 0x14
	add		
	ldc.i.0		0		; u32 0x0
	unaligned	1		; u32 0x1
	stind.i4	

; 151  : 		return B_OK;

	ldc.i.1		1		; i32 0x1
	br		$L6212
$L5608:

; 152  : 	}
; 153  : 
; 154  : 	b_int64 alloc_size = size >= B_MAXINT64 - fBlockSize ?
; 155  : 			    B_MAXINT64 : ((size + (b_int64)fBlockSize - 1) & ~((b_int64)fBlockSize - 1));

	ldarg.1				; _size$
	ldc.i8		9223372036854775807 ; i64 0x7fffffffffffffff
	ldarg.0				; _this$
	ldc.i.8		8		; i32 0x8
	add		
	unaligned	1		; u32 0x1
	ldind.i4	
	conv.u8		
	sub		
	blt.s		$L6207
	ldc.i8		9223372036854775807 ; i64 0x7fffffffffffffff
	br.s		$L6208
$L6207:
	ldarg.1				; _size$
	ldarg.0				; _this$
	ldc.i.8		8		; i32 0x8
	add		
	unaligned	1		; u32 0x1
	ldind.i4	
	conv.u8		
	add		
	ldc.i.1		1		; i64 0x1
	conv.i8		
	sub		
	ldarg.0				; _this$
	ldc.i.8		8		; i32 0x8
	add		
	unaligned	1		; u32 0x1
	ldind.i4	
	conv.u8		
	ldc.i.1		1		; i64 0x1
	conv.i8		
	sub		
	not		
	and		
$L6208:
	stloc.0				; _alloc_size$

; 156  : 
; 157  : 	if(alloc_size > (b_int64)~((size_t)0)) alloc_size = (b_int64)~((size_t)0);

	ldloc.0				; _alloc_size$
	ldc.i8		4294967295	; i64 0xffffffff
	ble.s		$L5615
	ldc.i8		4294967295	; i64 0xffffffff
	stloc.0				; _alloc_size$
$L5615:

; 158  : 	if(alloc_size != (b_int64)fMallocSize)

	ldloc.0				; _alloc_size$
	ldarg.0				; _this$
	ldc.i4.s	12		; i32 0xc
	add		
	unaligned	1		; u32 0x1
	ldind.i4	
	conv.u8		
	beq.s		$L5619

; 159  : 	{
; 160  : 		char *data = (char*)realloc(fData, (size_t)alloc_size);

	ldarg.0				; _this$
	ldc.i.4		4		; i32 0x4
	add		
	unaligned	1		; u32 0x1
	ldind.i4	
	ldloc.0				; _alloc_size$
	conv.i4		
	call		?realloc@@$$J0YAPAXPAXI@Z
	stloc.1				; _data$5620

; 161  : 		if(data == NULL)

	ldloc.1				; _data$5620
	brtrue.s	$L5623

; 162  : 		{
; 163  : 			if(size > (b_int64)fMallocSize) return B_NO_MEMORY;

	ldarg.1				; _size$
	ldarg.0				; _this$
	ldc.i4.s	12		; i32 0xc
	add		
	unaligned	1		; u32 0x1
	ldind.i4	
	conv.u8		
	ble.s		$L5625
	ldc.i4		-2147483648	; i32 0x80000000
	br.s		$L6212
$L5625:

; 164  : 		}
; 165  : 		else

	br.s		$L5619
$L5623:

; 166  : 		{
; 167  : 			fData = data;

	ldarg.0				; _this$
	ldc.i.4		4		; i32 0x4
	add		
	ldloc.1				; _data$5620
	unaligned	1		; u32 0x1
	stind.i4	

; 168  : 			fMallocSize = (size_t)alloc_size;

	ldarg.0				; _this$
	ldc.i4.s	12		; i32 0xc
	add		
	ldloc.0				; _alloc_size$
	conv.i4		
	unaligned	1		; u32 0x1
	stind.i4	
$L5619:

; 169  : 		}
; 170  : 	}
; 171  : 
; 172  : 	fLength = (size_t)size;

	ldarg.0				; _this$
	ldc.i4.s	16		; i32 0x10
	add		
	ldarg.1				; _size$
	conv.i4		
	unaligned	1		; u32 0x1
	stind.i4	

; 173  : 
; 174  : 	return B_OK;

	ldc.i.1		1		; i32 0x1
	br.s		$L6212
$L6212:

; 175  : }

	ret		
 .end ?SetSize@BMallocIO@@$$FUAEH_J@Z			; BMallocIO::SetSize
;	.proc.end.i4
text	ENDS
PUBLIC	__mep@?SetSize@BMallocIO@@$$FUAEH_J@Z
;	COMDAT __mep@?SetSize@BMallocIO@@$$FUAEH_J@Z
data	SEGMENT
__mep@?SetSize@BMallocIO@@$$FUAEH_J@Z TOKEN 06000048
; Function compile flags: /Odt
data	ENDS
;	COMDAT ?SetSize@BMallocIO@@UAEH_J@Z
text	SEGMENT
?SetSize@BMallocIO@@UAEH_J@Z PROC NEAR			; BMallocIO::SetSize, COMDAT
	jmp	DWORD PTR __mep@?SetSize@BMallocIO@@$$FUAEH_J@Z
?SetSize@BMallocIO@@UAEH_J@Z ENDP			; BMallocIO::SetSize
; Function compile flags: /Odt
	.text
.global	?SetBlockSize@BMallocIO@@$$FQAEXI@Z		; BMallocIO::SetBlockSize
?SetBlockSize@BMallocIO@@$$FQAEXI@Z:			; BMallocIO::SetBlockSize
;	.proc.def	D:V(II)

; Function Header:
; max stack depth = 2
; function size = 9 bytes
; local varsig tk = 0x0 
; Exception Information:
; 0 handlers, each consisting of filtered handlers

;	.formal.u4 1,"_blocksize$"
;	.formal.i4 0,"_this$" SIG: Optional C Binding Modifier(token:0xA752E2).Optional C Binding Modifier(token:0xA752E4).ptr.valueType (token:0xA752E7)

;	.proc.beg

; 179  : 	fBlockSize = blocksize;

	ldarg.0				; _this$
	ldc.i.8		8		; i32 0x8
	add		
	ldarg.1				; _blocksize$
	unaligned	1		; u32 0x1
	stind.i4	
$L6226:

; 180  : }

	ret		
 .end ?SetBlockSize@BMallocIO@@$$FQAEXI@Z		; BMallocIO::SetBlockSize
;	.proc.end.void
text	ENDS
PUBLIC	?SetBlockSize@BMallocIO@@QAEXI@Z		; BMallocIO::SetBlockSize
PUBLIC	__mep@?SetBlockSize@BMallocIO@@$$FQAEXI@Z
;	COMDAT __mep@?SetBlockSize@BMallocIO@@$$FQAEXI@Z
data	SEGMENT
__mep@?SetBlockSize@BMallocIO@@$$FQAEXI@Z TOKEN 06000049
; Function compile flags: /Odt
data	ENDS
;	COMDAT ?SetBlockSize@BMallocIO@@QAEXI@Z
text	SEGMENT
?SetBlockSize@BMallocIO@@QAEXI@Z PROC NEAR		; BMallocIO::SetBlockSize, COMDAT
	jmp	DWORD PTR __mep@?SetBlockSize@BMallocIO@@$$FQAEXI@Z
?SetBlockSize@BMallocIO@@QAEXI@Z ENDP			; BMallocIO::SetBlockSize
; Function compile flags: /Odt
	.text
.global	?Buffer@BMallocIO@@$$FQBEPBXXZ			; BMallocIO::Buffer
?Buffer@BMallocIO@@$$FQBEPBXXZ:				; BMallocIO::Buffer
;	.proc.def	D:I(I)

; Function Header:
; max stack depth = 2
; function size = 10 bytes
; local varsig tk = 0x0 
; Exception Information:
; 0 handlers, each consisting of filtered handlers

;	.formal.i4 0,"_this$" SIG: Optional C Binding Modifier(token:0x9DFB06).Optional C Binding Modifier(token:0x9DFB08).ptr.Optional C Binding Modifier(token:0x9DFB0B).valueType (token:0x9DFB0D)

;	.proc.beg

; 184  : 	return((const void*)fData);

	ldarg.0				; _this$
	ldc.i.4		4		; i32 0x4
	add		
	unaligned	1		; u32 0x1
	ldind.i4	
	br.s		$L6238
$L6238:

; 185  : }

	ret		
 .end ?Buffer@BMallocIO@@$$FQBEPBXXZ			; BMallocIO::Buffer
;	.proc.end.i4
text	ENDS
PUBLIC	?Buffer@BMallocIO@@QBEPBXXZ			; BMallocIO::Buffer
PUBLIC	__mep@?Buffer@BMallocIO@@$$FQBEPBXXZ
;	COMDAT __mep@?Buffer@BMallocIO@@$$FQBEPBXXZ
data	SEGMENT
__mep@?Buffer@BMallocIO@@$$FQBEPBXXZ TOKEN 0600004A
; Function compile flags: /Odt
data	ENDS
;	COMDAT ?Buffer@BMallocIO@@QBEPBXXZ
text	SEGMENT
?Buffer@BMallocIO@@QBEPBXXZ PROC NEAR			; BMallocIO::Buffer, COMDAT
	jmp	DWORD PTR __mep@?Buffer@BMallocIO@@$$FQBEPBXXZ
?Buffer@BMallocIO@@QBEPBXXZ ENDP			; BMallocIO::Buffer
; Function compile flags: /Odt
	.text
.global	?BufferLength@BMallocIO@@$$FQAEIXZ		; BMallocIO::BufferLength
?BufferLength@BMallocIO@@$$FQAEIXZ:			; BMallocIO::BufferLength
;	.proc.def	D:I(I)

; Function Header:
; max stack depth = 2
; function size = 11 bytes
; local varsig tk = 0x0 
; Exception Information:
; 0 handlers, each consisting of filtered handlers

;	.formal.i4 0,"_this$" SIG: Optional C Binding Modifier(token:0xA752E2).Optional C Binding Modifier(token:0xA752E4).ptr.valueType (token:0xA752E7)

;	.proc.beg

; 189  : 	return fLength;

	ldarg.0				; _this$
	ldc.i4.s	16		; i32 0x10
	add		
	unaligned	1		; u32 0x1
	ldind.i4	
	br.s		$L6250
$L6250:

; 190  : }

	ret		
 .end ?BufferLength@BMallocIO@@$$FQAEIXZ		; BMallocIO::BufferLength
;	.proc.end.u4
text	ENDS
PUBLIC	?BufferLength@BMallocIO@@QAEIXZ			; BMallocIO::BufferLength
PUBLIC	__mep@?BufferLength@BMallocIO@@$$FQAEIXZ
;	COMDAT __mep@?BufferLength@BMallocIO@@$$FQAEIXZ
data	SEGMENT
__mep@?BufferLength@BMallocIO@@$$FQAEIXZ TOKEN 0600004B
; Function compile flags: /Odt
data	ENDS
;	COMDAT ?BufferLength@BMallocIO@@QAEIXZ
text	SEGMENT
?BufferLength@BMallocIO@@QAEIXZ PROC NEAR		; BMallocIO::BufferLength, COMDAT
	jmp	DWORD PTR __mep@?BufferLength@BMallocIO@@$$FQAEIXZ
?BufferLength@BMallocIO@@QAEIXZ ENDP			; BMallocIO::BufferLength
.global	
.global	??_7BMemoryIO@@6B@				; BMemoryIO::`vftable'
.global	??_R4BMemoryIO@@6B@				; BMemoryIO::`RTTI Complete Object Locator'
.global	??_R0?AVBMemoryIO@@@8				; BMemoryIO `RTTI Type Descriptor'
.global	??_R3BMemoryIO@@8				; BMemoryIO::`RTTI Class Hierarchy Descriptor'
.global	??_R2BMemoryIO@@8				; BMemoryIO::`RTTI Base Class Array'
.global	??_R1A@?0A@A@BMemoryIO@@8			; BMemoryIO::`RTTI Base Class Descriptor at (0,-1,0,0)'
	.bss
.local	,4
	.data
	.comdat	largest, ??_7BMemoryIO@@6B@

??_7BMemoryIO@@6B@:					; BMemoryIO::`vftable'
	DD	??_R4BMemoryIO@@6B@
??_7BMemoryIO@@6B@:					; BMemoryIO::`vftable'
	DD	??_EBMemoryIO@@UAEPAXI@Z
??_7BMemoryIO@@6B@:					; BMemoryIO::`vftable'
	DD	?Read@BPositionIO@@UAEIPAXI@Z
??_7BMemoryIO@@6B@:					; BMemoryIO::`vftable'
	DD	?Write@BPositionIO@@UAEIPBXI@Z
??_7BMemoryIO@@6B@:					; BMemoryIO::`vftable'
	DD	?ReadAt@BMemoryIO@@UAEI_JPAXI@Z
??_7BMemoryIO@@6B@:					; BMemoryIO::`vftable'
	DD	?WriteAt@BMemoryIO@@UAEI_JPBXI@Z
??_7BMemoryIO@@6B@:					; BMemoryIO::`vftable'
	DD	?Seek@BMemoryIO@@UAE_J_JI@Z
??_7BMemoryIO@@6B@:					; BMemoryIO::`vftable'
	DD	?Position@BMemoryIO@@UBE_JXZ
??_7BMemoryIO@@6B@:					; BMemoryIO::`vftable'
	DD	?SetSize@BMemoryIO@@UAEH_J@Z
	.rdataseg	.rdata$r
	.comdat	any, ??_R4BMemoryIO@@6B@

??_R4BMemoryIO@@6B@:					; BMemoryIO::`RTTI Complete Object Locator'
	.word	0x0
??_R4BMemoryIO@@6B@:					; BMemoryIO::`RTTI Complete Object Locator'
	.word	0x0
??_R4BMemoryIO@@6B@:					; BMemoryIO::`RTTI Complete Object Locator'
	.word	0x0
??_R4BMemoryIO@@6B@:					; BMemoryIO::`RTTI Complete Object Locator'
	DD	??_R0?AVBMemoryIO@@@8
??_R4BMemoryIO@@6B@:					; BMemoryIO::`RTTI Complete Object Locator'
	DD	??_R3BMemoryIO@@8
	.data
	.comdat	any, ??_R0?AVBMemoryIO@@@8

??_R0?AVBMemoryIO@@@8:					; BMemoryIO `RTTI Type Descriptor'
	DD	??_7type_info@@6B@
??_R0?AVBMemoryIO@@@8:					; BMemoryIO `RTTI Type Descriptor'
	.word	0x0
??_R0?AVBMemoryIO@@@8:					; BMemoryIO `RTTI Type Descriptor'
	.ascii	".?AVBMemoryIO@@\000"
	.rdataseg	.rdata$r
	.comdat	any, ??_R3BMemoryIO@@8

??_R3BMemoryIO@@8:					; BMemoryIO::`RTTI Class Hierarchy Descriptor'
	.word	0x0
??_R3BMemoryIO@@8:					; BMemoryIO::`RTTI Class Hierarchy Descriptor'
	.word	0x0
??_R3BMemoryIO@@8:					; BMemoryIO::`RTTI Class Hierarchy Descriptor'
	.word	0x3
??_R3BMemoryIO@@8:					; BMemoryIO::`RTTI Class Hierarchy Descriptor'
	DD	??_R2BMemoryIO@@8
	.rdataseg	.rdata$r
	.comdat	any, ??_R2BMemoryIO@@8

??_R2BMemoryIO@@8:					; BMemoryIO::`RTTI Base Class Array'
	DD	??_R1A@?0A@A@BMemoryIO@@8
??_R2BMemoryIO@@8:					; BMemoryIO::`RTTI Base Class Array'
	DD	??_R1A@?0A@A@BPositionIO@@8
??_R2BMemoryIO@@8:					; BMemoryIO::`RTTI Base Class Array'
	DD	??_R1A@?0A@A@BDataIO@@8
	.rdataseg	.rdata$r
	.comdat	any, ??_R1A@?0A@A@BMemoryIO@@8

??_R1A@?0A@A@BMemoryIO@@8:				; BMemoryIO::`RTTI Base Class Descriptor at (0,-1,0,0)'
	DD	??_R0?AVBMemoryIO@@@8
??_R1A@?0A@A@BMemoryIO@@8:				; BMemoryIO::`RTTI Base Class Descriptor at (0,-1,0,0)'
	.word	0x2
??_R1A@?0A@A@BMemoryIO@@8:				; BMemoryIO::`RTTI Base Class Descriptor at (0,-1,0,0)'
	.word	0x0
??_R1A@?0A@A@BMemoryIO@@8:				; BMemoryIO::`RTTI Base Class Descriptor at (0,-1,0,0)'
	.word	0xffffffff
??_R1A@?0A@A@BMemoryIO@@8:				; BMemoryIO::`RTTI Base Class Descriptor at (0,-1,0,0)'
	.word	0x0
??_R1A@?0A@A@BMemoryIO@@8:				; BMemoryIO::`RTTI Base Class Descriptor at (0,-1,0,0)'
	.word	0x0
; Function compile flags: /Odt
	.text
.global	??0BMemoryIO@@$$FQAE@PAXI@Z			; BMemoryIO::BMemoryIO
??0BMemoryIO@@$$FQAE@PAXI@Z:				; BMemoryIO::BMemoryIO
;	.proc.def	D:I(III)

; Function Header:
; max stack depth = 2
; function size = 102 bytes
; local varsig tk = 0x0 
; Exception Information:
; 1 handlers, each consisting of filtered handlers

;	.formal.i4 1,"_ptr$" SIG: ptr.void
;	.formal.u4 2,"_length$"
;	.formal.i4 0,"_this$" SIG: Optional C Binding Modifier(token:0x9DECC2).Optional C Binding Modifier(token:0x9DECC4).ptr.valueType (token:0x9DECC7)

;	.proc.beg

; 194  : {

	ldarg.0				; _this$
	call		??0BPositionIO@@$$FQAE@XZ
	pop		
$L6268:
	ldarg.0				; _this$
	ldsflda		??_7BMemoryIO@@6B@
	unaligned	1		; u32 0x1
	stind.i4	
	ldarg.0				; _this$
	ldc.i.4		4		; i32 0x4
	add		
	ldc.i.0		0		; u8 0x0
	stind.i1	
	ldarg.0				; _this$
	ldc.i.5		5		; i32 0x5
	add		
	ldarg.1				; _ptr$
	unaligned	1		; u32 0x1
	stind.i4	
	ldarg.0				; _this$
	ldc.i4.s	9		; i32 0x9
	add		
	ldarg.2				; _length$
	unaligned	1		; u32 0x1
	stind.i4	
	ldarg.0				; _this$
	ldc.i4.s	13		; i32 0xd
	add		
	ldarg.2				; _length$
	unaligned	1		; u32 0x1
	stind.i4	
	ldarg.0				; _this$
	ldc.i4.s	17		; i32 0x11
	add		
	ldc.i.0		0		; u32 0x0
	unaligned	1		; u32 0x1
	stind.i4	

; 195  : 	if(fBuffer == NULL) fRealLen = fLen = 0;

	ldarg.0				; _this$
	ldc.i.5		5		; i32 0x5
	add		
	unaligned	1		; u32 0x1
	ldind.i4	
	brfalse.s	$L6271
	leave.s		$L5645
$L6271:
	ldarg.0				; _this$
	ldc.i4.s	9		; i32 0x9
	add		
	ldc.i.0		0		; u32 0x0
	unaligned	1		; u32 0x1
	stind.i4	
	ldarg.0				; _this$
	ldc.i4.s	13		; i32 0xd
	add		
	ldc.i.0		0		; u32 0x0
	unaligned	1		; u32 0x1
	stind.i4	
	leave.s		$L6269
$L6270:
	ldsfld		__unep@??1BPositionIO@@$$FUAE@XZ
	ldarg.0				; _this$
	call		?__CxxCallUnwindDtor@@$$J0YAXP6EXPAX@Z0@Z
	endfinally	
$L6269:
$L5645:

; 196  : }

	ldarg.0				; _this$
$L6272:
	ret		
 .end ??0BMemoryIO@@$$FQAE@PAXI@Z			; BMemoryIO::BMemoryIO
;	.proc.end.i4
text	ENDS
PUBLIC	??0BMemoryIO@@QAE@PAXI@Z			; BMemoryIO::BMemoryIO
PUBLIC	__mep@??0BMemoryIO@@$$FQAE@PAXI@Z
;	COMDAT __mep@??0BMemoryIO@@$$FQAE@PAXI@Z
data	SEGMENT
__mep@??0BMemoryIO@@$$FQAE@PAXI@Z TOKEN 0600004C
; Function compile flags: /Odt
data	ENDS
;	COMDAT ??0BMemoryIO@@QAE@PAXI@Z
text	SEGMENT
??0BMemoryIO@@QAE@PAXI@Z PROC NEAR			; BMemoryIO::BMemoryIO, COMDAT
	jmp	DWORD PTR __mep@??0BMemoryIO@@$$FQAE@PAXI@Z
??0BMemoryIO@@QAE@PAXI@Z ENDP				; BMemoryIO::BMemoryIO
.global	__unep@??1BMemoryIO@@$$FUAE@XZ
	.rdata
	.comdat	any, __unep@??1BMemoryIO@@$$FUAE@XZ

__unep@??1BMemoryIO@@$$FUAE@XZ:
	DD	??1BMemoryIO@@UAE@XZ
; Function compile flags: /Odt
	.text
	.comdat	any, ??_EBMemoryIO@@$$FUAEPAXI@Z
.global	??_EBMemoryIO@@$$FUAEPAXI@Z			; BMemoryIO::`vector deleting destructor'
??_EBMemoryIO@@$$FUAEPAXI@Z:				; BMemoryIO::`vector deleting destructor'
;	.proc.def	D:I(II)

; Function Header:
; max stack depth = 4
; function size = 61 bytes
; local varsig tk = 0x0 
; Exception Information:
; 0 handlers, each consisting of filtered handlers

;	.formal.u4 1,"___flags$"
;	.formal.i4 0,"_this$" SIG: Optional C Binding Modifier(token:0x9DECC2).Optional C Binding Modifier(token:0x9DECC4).ptr.valueType (token:0x9DECC7)

;	.proc.beg
	ldarg.1				; ___flags$
	ldc.i.2		2		; u32 0x2
	and		
	brfalse.s	$L5655
	ldarg.0				; _this$
	ldc.i4.s	21		; u32 0x15
	ldarg.0				; _this$
	ldc.i.4		4		; i32 0x4
	sub		
	ldind.i4	
	ldsfld		__unep@??1BMemoryIO@@$$FUAE@XZ
	call		??_M@$$FYGXPAXIHP6EX0@Z@Z
	ldarg.1				; ___flags$
	ldc.i.1		1		; u32 0x1
	and		
	brfalse.s	$L5656
	ldarg.0				; _this$
	ldc.i.4		4		; i32 0x4
	sub		
	call		??_V@$$FYAXPAX@Z
$L5656:
	ldarg.0				; _this$
	ldc.i.4		4		; i32 0x4
	sub		
	br.s		$L6315
$L5655:
	ldarg.0				; _this$
	call		??1BMemoryIO@@$$FUAE@XZ
	ldarg.1				; ___flags$
	ldc.i.1		1		; u32 0x1
	and		
	brfalse.s	$L5658
	ldarg.0				; _this$
	call		??3@$$FYAXPAX@Z
$L5658:
	ldarg.0				; _this$
	br.s		$L6315
$L6315:
	ret		
 .end ??_EBMemoryIO@@$$FUAEPAXI@Z			; BMemoryIO::`vector deleting destructor'
;	.proc.end.i4
text	ENDS
PUBLIC	__mep@??_EBMemoryIO@@$$FUAEPAXI@Z
;	COMDAT __mep@??_EBMemoryIO@@$$FUAEPAXI@Z
data	SEGMENT
__mep@??_EBMemoryIO@@$$FUAEPAXI@Z TOKEN 0600004D
; Function compile flags: /Odt
data	ENDS
;	COMDAT ??_EBMemoryIO@@UAEPAXI@Z
text	SEGMENT
??_EBMemoryIO@@UAEPAXI@Z PROC NEAR			; BMemoryIO::`vector deleting destructor', COMDAT
	jmp	DWORD PTR __mep@??_EBMemoryIO@@$$FUAEPAXI@Z
??_EBMemoryIO@@UAEPAXI@Z ENDP				; BMemoryIO::`vector deleting destructor'
; Function compile flags: /Odt
	.text
.global	??0BMemoryIO@@$$FQAE@PBXI@Z			; BMemoryIO::BMemoryIO
??0BMemoryIO@@$$FQAE@PBXI@Z:				; BMemoryIO::BMemoryIO
;	.proc.def	D:I(III)

; Function Header:
; max stack depth = 2
; function size = 102 bytes
; local varsig tk = 0x0 
; Exception Information:
; 1 handlers, each consisting of filtered handlers

;	.formal.i4 1,"_ptr$" SIG: ptr.Optional C Binding Modifier(token:0x9F6F37).void
;	.formal.u4 2,"_length$"
;	.formal.i4 0,"_this$" SIG: Optional C Binding Modifier(token:0x9DECC2).Optional C Binding Modifier(token:0x9DECC4).ptr.valueType (token:0x9DECC7)

;	.proc.beg

; 200  : {

	ldarg.0				; _this$
	call		??0BPositionIO@@$$FQAE@XZ
	pop		
$L6334:
	ldarg.0				; _this$
	ldsflda		??_7BMemoryIO@@6B@
	unaligned	1		; u32 0x1
	stind.i4	
	ldarg.0				; _this$
	ldc.i.4		4		; i32 0x4
	add		
	ldc.i.1		1		; u8 0x1
	stind.i1	
	ldarg.0				; _this$
	ldc.i.5		5		; i32 0x5
	add		
	ldarg.1				; _ptr$
	unaligned	1		; u32 0x1
	stind.i4	
	ldarg.0				; _this$
	ldc.i4.s	9		; i32 0x9
	add		
	ldarg.2				; _length$
	unaligned	1		; u32 0x1
	stind.i4	
	ldarg.0				; _this$
	ldc.i4.s	13		; i32 0xd
	add		
	ldarg.2				; _length$
	unaligned	1		; u32 0x1
	stind.i4	
	ldarg.0				; _this$
	ldc.i4.s	17		; i32 0x11
	add		
	ldc.i.0		0		; u32 0x0
	unaligned	1		; u32 0x1
	stind.i4	

; 201  : 	if(fBuffer == NULL) fRealLen = fLen = 0;

	ldarg.0				; _this$
	ldc.i.5		5		; i32 0x5
	add		
	unaligned	1		; u32 0x1
	ldind.i4	
	brfalse.s	$L6337
	leave.s		$L5664
$L6337:
	ldarg.0				; _this$
	ldc.i4.s	9		; i32 0x9
	add		
	ldc.i.0		0		; u32 0x0
	unaligned	1		; u32 0x1
	stind.i4	
	ldarg.0				; _this$
	ldc.i4.s	13		; i32 0xd
	add		
	ldc.i.0		0		; u32 0x0
	unaligned	1		; u32 0x1
	stind.i4	
	leave.s		$L6335
$L6336:
	ldsfld		__unep@??1BPositionIO@@$$FUAE@XZ
	ldarg.0				; _this$
	call		?__CxxCallUnwindDtor@@$$J0YAXP6EXPAX@Z0@Z
	endfinally	
$L6335:
$L5664:

; 202  : }

	ldarg.0				; _this$
$L6338:
	ret		
 .end ??0BMemoryIO@@$$FQAE@PBXI@Z			; BMemoryIO::BMemoryIO
;	.proc.end.i4
text	ENDS
PUBLIC	??0BMemoryIO@@QAE@PBXI@Z			; BMemoryIO::BMemoryIO
PUBLIC	__mep@??0BMemoryIO@@$$FQAE@PBXI@Z
;	COMDAT __mep@??0BMemoryIO@@$$FQAE@PBXI@Z
data	SEGMENT
__mep@??0BMemoryIO@@$$FQAE@PBXI@Z TOKEN 0600004E
; Function compile flags: /Odt
data	ENDS
;	COMDAT ??0BMemoryIO@@QAE@PBXI@Z
text	SEGMENT
??0BMemoryIO@@QAE@PBXI@Z PROC NEAR			; BMemoryIO::BMemoryIO, COMDAT
	jmp	DWORD PTR __mep@??0BMemoryIO@@$$FQAE@PBXI@Z
??0BMemoryIO@@QAE@PBXI@Z ENDP				; BMemoryIO::BMemoryIO
; Function compile flags: /Odt
	.text
.global	??1BMemoryIO@@$$FUAE@XZ				; BMemoryIO::~BMemoryIO
??1BMemoryIO@@$$FUAE@XZ:				; BMemoryIO::~BMemoryIO
;	.proc.def	D:V(I)

; Function Header:
; max stack depth = 2
; function size = 17 bytes
; local varsig tk = 0x0 
; Exception Information:
; 0 handlers, each consisting of filtered handlers

;	.formal.i4 0,"_this$" SIG: Optional C Binding Modifier(token:0x9DECC2).Optional C Binding Modifier(token:0x9DECC4).ptr.valueType (token:0x9DECC7)

;	.proc.beg

; 205  : {

	ldarg.0				; _this$
	ldsflda		??_7BMemoryIO@@6B@
	unaligned	1		; u32 0x1
	stind.i4	

; 206  : }

	ldarg.0				; _this$
	call		??1BPositionIO@@$$FUAE@XZ
$L6351:
	ret		
 .end ??1BMemoryIO@@$$FUAE@XZ				; BMemoryIO::~BMemoryIO
;	.proc.end.void
text	ENDS
PUBLIC	__mep@??1BMemoryIO@@$$FUAE@XZ
;	COMDAT __mep@??1BMemoryIO@@$$FUAE@XZ
data	SEGMENT
__mep@??1BMemoryIO@@$$FUAE@XZ TOKEN 0600004F
; Function compile flags: /Odt
data	ENDS
;	COMDAT ??1BMemoryIO@@UAE@XZ
text	SEGMENT
??1BMemoryIO@@UAE@XZ PROC NEAR				; BMemoryIO::~BMemoryIO, COMDAT
	jmp	DWORD PTR __mep@??1BMemoryIO@@$$FUAE@XZ
??1BMemoryIO@@UAE@XZ ENDP				; BMemoryIO::~BMemoryIO
; Function compile flags: /Odt
	.text
.global	?ReadAt@BMemoryIO@@$$FUAEI_JPAXI@Z		; BMemoryIO::ReadAt
?ReadAt@BMemoryIO@@$$FUAEI_JPAXI@Z:			; BMemoryIO::ReadAt
;	.proc.def	D:I(IJII)

; Function Header:
; max stack depth = 4
; function size = 144 bytes
; local varsig tk = 0x0 
; Exception Information:
; 0 handlers, each consisting of filtered handlers

;	.formal.i8 1,"_pos$"
;	.formal.i4 2,"_buffer$" SIG: ptr.void
;	.formal.u4 3,"_size$"
;	.formal.i4 0,"_this$" SIG: Optional C Binding Modifier(token:0x9DECC2).Optional C Binding Modifier(token:0x9DECC4).ptr.valueType (token:0x9DECC7)

;	.proc.beg

; 210  : 	if(buffer == NULL) return B_BAD_VALUE;

	ldarg.2				; _buffer$
	brtrue.s	$L5675
	ldc.i4		-2147483643	; u32 0x80000005
	br		$L6360
$L5675:

; 211  : 
; 212  : 	if(size == 0 || BMemoryIO::Seek(pos, B_SEEK_CUR) < 0) return 0;

	ldarg.3				; _size$
	brfalse.s	$L5677
	ldarg.0				; _this$
	ldarg.1				; _pos$
	ldc.i.1		1		; u32 0x1
	call		?Seek@BMemoryIO@@$$FUAE_J_JI@Z
	ldc.i.0		0		; i64 0x0
	conv.i8		
	bge.s		$L5676
$L5677:
	ldc.i.0		0		; u32 0x0
	br.s		$L6360
$L5676:

; 213  : 	if(fPosition >= fLen) return 0;

	ldarg.0				; _this$
	ldc.i4.s	17		; i32 0x11
	add		
	unaligned	1		; u32 0x1
	ldind.i4	
	ldarg.0				; _this$
	ldc.i4.s	9		; i32 0x9
	add		
	unaligned	1		; u32 0x1
	ldind.i4	
	blt.un.s	$L5678
	ldc.i.0		0		; u32 0x0
	br.s		$L6360
$L5678:

; 214  : 
; 215  : 	size = min_c(size, fLen - fPosition);

	ldarg.3				; _size$
	ldarg.0				; _this$
	ldc.i4.s	9		; i32 0x9
	add		
	unaligned	1		; u32 0x1
	ldind.i4	
	ldarg.0				; _this$
	ldc.i4.s	17		; i32 0x11
	add		
	unaligned	1		; u32 0x1
	ldind.i4	
	sub		
	ble.un.s	$L6355
	ldarg.0				; _this$
	ldc.i4.s	9		; i32 0x9
	add		
	unaligned	1		; u32 0x1
	ldind.i4	
	ldarg.0				; _this$
	ldc.i4.s	17		; i32 0x11
	add		
	unaligned	1		; u32 0x1
	ldind.i4	
	sub		
	br.s		$L6356
$L6355:
	ldarg.3				; _size$
$L6356:
	starg.s		3		; _size$

; 216  : 	if(memcpy(buffer, fBuffer + fPosition, size) == NULL) return B_ERROR;

	ldarg.2				; _buffer$
	ldarg.0				; _this$
	ldc.i.5		5		; i32 0x5
	add		
	unaligned	1		; u32 0x1
	ldind.i4	
	ldarg.0				; _this$
	ldc.i4.s	17		; i32 0x11
	add		
	unaligned	1		; u32 0x1
	ldind.i4	
	add		
	ldarg.3				; _size$
	call		?memcpy@@$$J0YAPAXPAXPBXI@Z
	brtrue.s	$L5679
	ldc.i.-1	-1		; u32 0xffffffff
	br.s		$L6360
$L5679:

; 217  : 
; 218  : 	fPosition += size;

	ldarg.0				; _this$
	ldc.i4.s	17		; i32 0x11
	add		
	ldarg.0				; _this$
	ldc.i4.s	17		; i32 0x11
	add		
	unaligned	1		; u32 0x1
	ldind.i4	
	ldarg.3				; _size$
	add		
	unaligned	1		; u32 0x1
	stind.i4	

; 219  : 	return size;

	ldarg.3				; _size$
	br.s		$L6360
$L6360:

; 220  : }

	ret		
 .end ?ReadAt@BMemoryIO@@$$FUAEI_JPAXI@Z		; BMemoryIO::ReadAt
;	.proc.end.u4
text	ENDS
PUBLIC	__mep@?ReadAt@BMemoryIO@@$$FUAEI_JPAXI@Z
;	COMDAT __mep@?ReadAt@BMemoryIO@@$$FUAEI_JPAXI@Z
data	SEGMENT
__mep@?ReadAt@BMemoryIO@@$$FUAEI_JPAXI@Z TOKEN 06000050
; Function compile flags: /Odt
data	ENDS
;	COMDAT ?ReadAt@BMemoryIO@@UAEI_JPAXI@Z
text	SEGMENT
?ReadAt@BMemoryIO@@UAEI_JPAXI@Z PROC NEAR		; BMemoryIO::ReadAt, COMDAT
	jmp	DWORD PTR __mep@?ReadAt@BMemoryIO@@$$FUAEI_JPAXI@Z
?ReadAt@BMemoryIO@@UAEI_JPAXI@Z ENDP			; BMemoryIO::ReadAt
; Function compile flags: /Odt
	.text
.global	?WriteAt@BMemoryIO@@$$FUAEI_JPBXI@Z		; BMemoryIO::WriteAt
?WriteAt@BMemoryIO@@$$FUAEI_JPBXI@Z:			; BMemoryIO::WriteAt
;	.proc.def	D:I(IJII)

; Function Header:
; max stack depth = 4
; function size = 160 bytes
; local varsig tk = 0x0 
; Exception Information:
; 0 handlers, each consisting of filtered handlers

;	.formal.i8 1,"_pos$"
;	.formal.i4 2,"_buffer$" SIG: ptr.Optional C Binding Modifier(token:0x9F6F37).void
;	.formal.u4 3,"_size$"
;	.formal.i4 0,"_this$" SIG: Optional C Binding Modifier(token:0x9DECC2).Optional C Binding Modifier(token:0x9DECC4).ptr.valueType (token:0x9DECC7)

;	.proc.beg

; 224  : 	if(fReadOnly) return B_NOT_ALLOWED;

	ldarg.0				; _this$
	ldc.i.4		4		; i32 0x4
	add		
	ldind.u1	
	brfalse.s	$L5686
	ldc.i4		-2147483633	; u32 0x8000000f
	br		$L6369
$L5686:

; 225  : 	if(buffer == NULL) return B_BAD_VALUE;

	ldarg.2				; _buffer$
	brtrue.s	$L5687
	ldc.i4		-2147483643	; u32 0x80000005
	br		$L6369
$L5687:

; 226  : 
; 227  : 	if(size == 0 || BMemoryIO::Seek(pos, B_SEEK_CUR) < 0) return 0;

	ldarg.3				; _size$
	brfalse.s	$L5689
	ldarg.0				; _this$
	ldarg.1				; _pos$
	ldc.i.1		1		; u32 0x1
	call		?Seek@BMemoryIO@@$$FUAE_J_JI@Z
	ldc.i.0		0		; i64 0x0
	conv.i8		
	bge.s		$L5688
$L5689:
	ldc.i.0		0		; u32 0x0
	br.s		$L6369
$L5688:

; 228  : 
; 229  : 	if(fLen > fPosition)

	ldarg.0				; _this$
	ldc.i4.s	9		; i32 0x9
	add		
	unaligned	1		; u32 0x1
	ldind.i4	
	ldarg.0				; _this$
	ldc.i4.s	17		; i32 0x11
	add		
	unaligned	1		; u32 0x1
	ldind.i4	
	ble.un.s	$L5690

; 230  : 	{
; 231  : 		size = min_c(size, fLen - fPosition);

	ldarg.3				; _size$
	ldarg.0				; _this$
	ldc.i4.s	9		; i32 0x9
	add		
	unaligned	1		; u32 0x1
	ldind.i4	
	ldarg.0				; _this$
	ldc.i4.s	17		; i32 0x11
	add		
	unaligned	1		; u32 0x1
	ldind.i4	
	sub		
	ble.un.s	$L6364
	ldarg.0				; _this$
	ldc.i4.s	9		; i32 0x9
	add		
	unaligned	1		; u32 0x1
	ldind.i4	
	ldarg.0				; _this$
	ldc.i4.s	17		; i32 0x11
	add		
	unaligned	1		; u32 0x1
	ldind.i4	
	sub		
	br.s		$L6365
$L6364:
	ldarg.3				; _size$
$L6365:
	starg.s		3		; _size$

; 232  : 		if(memcpy(fBuffer + fPosition, buffer, size) == NULL) return B_ERROR;

	ldarg.0				; _this$
	ldc.i.5		5		; i32 0x5
	add		
	unaligned	1		; u32 0x1
	ldind.i4	
	ldarg.0				; _this$
	ldc.i4.s	17		; i32 0x11
	add		
	unaligned	1		; u32 0x1
	ldind.i4	
	add		
	ldarg.2				; _buffer$
	ldarg.3				; _size$
	call		?memcpy@@$$J0YAPAXPAXPBXI@Z
	brtrue.s	$L5691
	ldc.i.-1	-1		; u32 0xffffffff
	br.s		$L6369
$L5691:

; 233  : 		fPosition += size;

	ldarg.0				; _this$
	ldc.i4.s	17		; i32 0x11
	add		
	ldarg.0				; _this$
	ldc.i4.s	17		; i32 0x11
	add		
	unaligned	1		; u32 0x1
	ldind.i4	
	ldarg.3				; _size$
	add		
	unaligned	1		; u32 0x1
	stind.i4	

; 234  : 		return size;

	ldarg.3				; _size$
	br.s		$L6369
$L5690:

; 235  : 	}
; 236  : 
; 237  : 	return 0;

	ldc.i.0		0		; u32 0x0
	br.s		$L6369
$L6369:

; 238  : }

	ret		
 .end ?WriteAt@BMemoryIO@@$$FUAEI_JPBXI@Z		; BMemoryIO::WriteAt
;	.proc.end.u4
text	ENDS
PUBLIC	__mep@?WriteAt@BMemoryIO@@$$FUAEI_JPBXI@Z
;	COMDAT __mep@?WriteAt@BMemoryIO@@$$FUAEI_JPBXI@Z
data	SEGMENT
__mep@?WriteAt@BMemoryIO@@$$FUAEI_JPBXI@Z TOKEN 06000051
; Function compile flags: /Odt
data	ENDS
;	COMDAT ?WriteAt@BMemoryIO@@UAEI_JPBXI@Z
text	SEGMENT
?WriteAt@BMemoryIO@@UAEI_JPBXI@Z PROC NEAR		; BMemoryIO::WriteAt, COMDAT
	jmp	DWORD PTR __mep@?WriteAt@BMemoryIO@@$$FUAEI_JPBXI@Z
?WriteAt@BMemoryIO@@UAEI_JPBXI@Z ENDP			; BMemoryIO::WriteAt
	.bss
.local	$T6389,4
; Function compile flags: /Odt
	.text
.global	?Seek@BMemoryIO@@$$FUAE_J_JI@Z			; BMemoryIO::Seek
?Seek@BMemoryIO@@$$FUAE_J_JI@Z:				; BMemoryIO::Seek
;	.proc.def	D:J(IJI)

; Function Header:
; max stack depth = 4
; function size = 291 bytes
; local varsig tk = 0x1100000D 
; Exception Information:
; 0 handlers, each consisting of filtered handlers

;	.formal.i8 1,"_position$"
;	.formal.u4 2,"_seek_mode$"
;	.formal.i4 0,"_this$" SIG: Optional C Binding Modifier(token:0x9DECC2).Optional C Binding Modifier(token:0x9DECC4).ptr.valueType (token:0x9DECC7)
;	.local.i8 0,"_retVal$"

;	.proc.beg

; 242  : 	b_int64 retVal = B_INT64_CONSTANT(-1);

	ldc.i8		-1		; i64 0xffffffffffffffff
	stloc.0				; _retVal$

; 243  : 
; 244  : 	switch(seek_mode)

	ldarg.2				; _seek_mode$
	stloc.1				
	ldloc.1				
	brfalse.s	$L5703
	ldloc.1				
	ldc.i.1		1		; u32 0x1
	beq.s		$L5707
	ldloc.1				
	ldc.i.2		2		; u32 0x2
	beq		$L5716
	br		$L5700
$L5703:

; 245  : 	{
; 246  : 		case B_SEEK_SET:
; 247  : 			if(!(position < 0 || position > (b_int64)fRealLen))

	ldarg.1				; _position$
	ldc.i.0		0		; i64 0x0
	conv.i8		
	blt.s		$L5705
	ldarg.1				; _position$
	ldarg.0				; _this$
	ldc.i4.s	13		; i32 0xd
	add		
	unaligned	1		; u32 0x1
	ldind.i4	
	conv.u8		
	bgt.s		$L5705

; 248  : 				fPosition = (size_t)(retVal = position);

	ldarg.1				; _position$
	stloc.0				; _retVal$
	ldarg.0				; _this$
	ldc.i4.s	17		; i32 0x11
	add		
	ldloc.0				; _retVal$
	conv.i4		
	unaligned	1		; u32 0x1
	stind.i4	
$L5705:

; 249  : 			break;

	br		$L5700
$L5707:

; 250  : 
; 251  : 		case B_SEEK_CUR:
; 252  : 			if(position < 0 ? (b_int64)fPosition >= -position : position <= (b_int64)(fRealLen - fPosition))

	ldarg.1				; _position$
	ldc.i.0		0		; i64 0x0
	conv.i8		
	bge.s		$L6377
	ldarg.0				; _this$
	ldc.i4.s	17		; i32 0x11
	add		
	unaligned	1		; u32 0x1
	ldind.i4	
	conv.u8		
	ldarg.1				; _position$
	neg		
	blt.s		$L6375
	ldc.i.1		1		; i32 0x1
	br.s		$L6376
$L6375:
	ldc.i.0		0		; i32 0x0
$L6376:
	stloc.3				
	br.s		$L6378
$L6377:
	ldarg.1				; _position$
	ldarg.0				; _this$
	ldc.i4.s	13		; i32 0xd
	add		
	unaligned	1		; u32 0x1
	ldind.i4	
	ldarg.0				; _this$
	ldc.i4.s	17		; i32 0x11
	add		
	unaligned	1		; u32 0x1
	ldind.i4	
	sub		
	conv.u8		
	bgt.s		$L6373
	ldc.i.1		1		; i32 0x1
	br.s		$L6374
$L6373:
	ldc.i.0		0		; i32 0x0
$L6374:
	stloc.3				
$L6378:
	ldloc.3				
	brfalse.s	$L5710

; 253  : 			{
; 254  : 				if(position < 0) fPosition -= (size_t)(-position);

	ldarg.1				; _position$
	ldc.i.0		0		; i64 0x0
	conv.i8		
	bge.s		$L5711
	ldarg.0				; _this$
	ldc.i4.s	17		; i32 0x11
	add		
	ldarg.0				; _this$
	ldc.i4.s	17		; i32 0x11
	add		
	unaligned	1		; u32 0x1
	ldind.i4	
	ldarg.1				; _position$
	neg		
	conv.i4		
	sub		
	unaligned	1		; u32 0x1
	stind.i4	

; 255  : 				else fPosition += (size_t)position;

	br.s		$L5713
$L5711:
	ldarg.0				; _this$
	ldc.i4.s	17		; i32 0x11
	add		
	ldarg.0				; _this$
	ldc.i4.s	17		; i32 0x11
	add		
	unaligned	1		; u32 0x1
	ldind.i4	
	ldarg.1				; _position$
	conv.i4		
	add		
	unaligned	1		; u32 0x1
	stind.i4	
$L5713:

; 256  : 				retVal = (b_int64)fPosition;

	ldarg.0				; _this$
	ldc.i4.s	17		; i32 0x11
	add		
	unaligned	1		; u32 0x1
	ldind.i4	
	conv.u8		
	stloc.0				; _retVal$
$L5710:

; 257  : 			}
; 258  : 			break;

	br.s		$L5700
$L5716:

; 259  : 
; 260  : 		case B_SEEK_END:
; 261  : 			if(position < 0 ? (b_int64)fLen >= -position : position <= (b_int64)(fRealLen - fLen))

	ldarg.1				; _position$
	ldc.i.0		0		; i64 0x0
	conv.i8		
	bge.s		$L6383
	ldarg.0				; _this$
	ldc.i4.s	9		; i32 0x9
	add		
	unaligned	1		; u32 0x1
	ldind.i4	
	conv.u8		
	ldarg.1				; _position$
	neg		
	blt.s		$L6381
	ldc.i.1		1		; i32 0x1
	br.s		$L6382
$L6381:
	ldc.i.0		0		; i32 0x0
$L6382:
	stloc.2				
	br.s		$L6384
$L6383:
	ldarg.1				; _position$
	ldarg.0				; _this$
	ldc.i4.s	13		; i32 0xd
	add		
	unaligned	1		; u32 0x1
	ldind.i4	
	ldarg.0				; _this$
	ldc.i4.s	9		; i32 0x9
	add		
	unaligned	1		; u32 0x1
	ldind.i4	
	sub		
	conv.u8		
	bgt.s		$L6379
	ldc.i.1		1		; i32 0x1
	br.s		$L6380
$L6379:
	ldc.i.0		0		; i32 0x0
$L6380:
	stloc.2				
$L6384:
	ldloc.2				
	brfalse.s	$L5700

; 262  : 			{
; 263  : 				if(position < 0) fPosition = fLen - (size_t)(-position);

	ldarg.1				; _position$
	ldc.i.0		0		; i64 0x0
	conv.i8		
	bge.s		$L5720
	ldarg.0				; _this$
	ldc.i4.s	17		; i32 0x11
	add		
	ldarg.0				; _this$
	ldc.i4.s	9		; i32 0x9
	add		
	unaligned	1		; u32 0x1
	ldind.i4	
	ldarg.1				; _position$
	neg		
	conv.i4		
	sub		
	unaligned	1		; u32 0x1
	stind.i4	

; 264  : 				else fPosition = fLen + (size_t)position;

	br.s		$L5722
$L5720:
	ldarg.0				; _this$
	ldc.i4.s	17		; i32 0x11
	add		
	ldarg.0				; _this$
	ldc.i4.s	9		; i32 0x9
	add		
	unaligned	1		; u32 0x1
	ldind.i4	
	ldarg.1				; _position$
	conv.i4		
	add		
	unaligned	1		; u32 0x1
	stind.i4	
$L5722:

; 265  : 				retVal = (b_int64)fPosition;

	ldarg.0				; _this$
	ldc.i4.s	17		; i32 0x11
	add		
	unaligned	1		; u32 0x1
	ldind.i4	
	conv.u8		
	stloc.0				; _retVal$
$L5700:

; 266  : 			}
; 267  : 			break;
; 268  : 
; 269  : 		default:
; 270  : 			break;
; 271  : 	}
; 272  : 
; 273  : 	return retVal;

	ldloc.0				; _retVal$
	br.s		$L6388
$L6388:

; 274  : }

	ret		
 .end ?Seek@BMemoryIO@@$$FUAE_J_JI@Z			; BMemoryIO::Seek
;	.proc.end.i8
text	ENDS
PUBLIC	__mep@?Seek@BMemoryIO@@$$FUAE_J_JI@Z
;	COMDAT __mep@?Seek@BMemoryIO@@$$FUAE_J_JI@Z
data	SEGMENT
__mep@?Seek@BMemoryIO@@$$FUAE_J_JI@Z TOKEN 06000052
; Function compile flags: /Odt
data	ENDS
;	COMDAT ?Seek@BMemoryIO@@UAE_J_JI@Z
text	SEGMENT
?Seek@BMemoryIO@@UAE_J_JI@Z PROC NEAR			; BMemoryIO::Seek, COMDAT
	jmp	DWORD PTR __mep@?Seek@BMemoryIO@@$$FUAE_J_JI@Z
?Seek@BMemoryIO@@UAE_J_JI@Z ENDP			; BMemoryIO::Seek
.global	
	.bss
.local	,4
; Function compile flags: /Odt
	.text
.global	?Position@BMemoryIO@@$$FUBE_JXZ			; BMemoryIO::Position
?Position@BMemoryIO@@$$FUBE_JXZ:			; BMemoryIO::Position
;	.proc.def	D:J(I)

; Function Header:
; max stack depth = 2
; function size = 12 bytes
; local varsig tk = 0x0 
; Exception Information:
; 0 handlers, each consisting of filtered handlers

;	.formal.i4 0,"_this$" SIG: Optional C Binding Modifier(token:0xA75886).Optional C Binding Modifier(token:0xA75888).ptr.Optional C Binding Modifier(token:0xA7588B).valueType (token:0xA7588D)

;	.proc.beg

; 278  : 	return (b_int64)fPosition;

	ldarg.0				; _this$
	ldc.i4.s	17		; i32 0x11
	add		
	unaligned	1		; u32 0x1
	ldind.i4	
	conv.u8		
	br.s		$L6396
$L6396:

; 279  : }

	ret		
 .end ?Position@BMemoryIO@@$$FUBE_JXZ			; BMemoryIO::Position
;	.proc.end.i8
text	ENDS
PUBLIC	__mep@?Position@BMemoryIO@@$$FUBE_JXZ
;	COMDAT __mep@?Position@BMemoryIO@@$$FUBE_JXZ
data	SEGMENT
__mep@?Position@BMemoryIO@@$$FUBE_JXZ TOKEN 06000053
; Function compile flags: /Odt
data	ENDS
;	COMDAT ?Position@BMemoryIO@@UBE_JXZ
text	SEGMENT
?Position@BMemoryIO@@UBE_JXZ PROC NEAR			; BMemoryIO::Position, COMDAT
	jmp	DWORD PTR __mep@?Position@BMemoryIO@@$$FUBE_JXZ
?Position@BMemoryIO@@UBE_JXZ ENDP			; BMemoryIO::Position
; Function compile flags: /Odt
	.text
.global	?SetSize@BMemoryIO@@$$FUAEH_J@Z			; BMemoryIO::SetSize
?SetSize@BMemoryIO@@$$FUAEH_J@Z:			; BMemoryIO::SetSize
;	.proc.def	D:I(IJ)

; Function Header:
; max stack depth = 3
; function size = 33 bytes
; local varsig tk = 0x0 
; Exception Information:
; 0 handlers, each consisting of filtered handlers

;	.formal.i8 1,"_size$"
;	.formal.i4 0,"_this$" SIG: Optional C Binding Modifier(token:0x9DECC2).Optional C Binding Modifier(token:0x9DECC4).ptr.valueType (token:0x9DECC7)

;	.proc.beg

; 283  : 	if(size > (b_int64)fRealLen) return B_NO_MEMORY;

	ldarg.1				; _size$
	ldarg.0				; _this$
	ldc.i4.s	13		; i32 0xd
	add		
	unaligned	1		; u32 0x1
	ldind.i4	
	conv.u8		
	ble.s		$L5736
	ldc.i4		-2147483648	; i32 0x80000000
	br.s		$L6404
$L5736:

; 284  : 	fLen = (size_t)size;

	ldarg.0				; _this$
	ldc.i4.s	9		; i32 0x9
	add		
	ldarg.1				; _size$
	conv.i4		
	unaligned	1		; u32 0x1
	stind.i4	

; 285  : 	return B_OK;

	ldc.i.1		1		; i32 0x1
	br.s		$L6404
$L6404:

; 286  : }

	ret		
 .end ?SetSize@BMemoryIO@@$$FUAEH_J@Z			; BMemoryIO::SetSize
;	.proc.end.i4
text	ENDS
PUBLIC	__mep@?SetSize@BMemoryIO@@$$FUAEH_J@Z
;	COMDAT __mep@?SetSize@BMemoryIO@@$$FUAEH_J@Z
data	SEGMENT
__mep@?SetSize@BMemoryIO@@$$FUAEH_J@Z TOKEN 06000054
; Function compile flags: /Odt
data	ENDS
;	COMDAT ?SetSize@BMemoryIO@@UAEH_J@Z
text	SEGMENT
?SetSize@BMemoryIO@@UAEH_J@Z PROC NEAR			; BMemoryIO::SetSize, COMDAT
	jmp	DWORD PTR __mep@?SetSize@BMemoryIO@@$$FUAEH_J@Z
?SetSize@BMemoryIO@@UAEH_J@Z ENDP			; BMemoryIO::SetSize
text	ENDS
END
