; Listing generated by Microsoft (R) Optimizing Compiler Version 13.10.3077 

; Generated by VC++ for Common Language Runtime
.file "\Documents and Settings\stasiek.TC12\My Documents\prc++\x86_libraries\Bhapi\src\kits\support\Flattenable.cpp"
.global	
.global	
	.bss
.local	,4
.local	,4
; Function compile flags: /Odt
; File c:\program files\microsoft visual studio .net 2003\vc7\include\xmemory
	.text
	.comdat	any, ??0?$allocator@X@std@@$$FQAE@ABV01@@Z
.global	??0?$allocator@X@std@@$$FQAE@ABV01@@Z		; std::allocator<void>::allocator<void>
??0?$allocator@X@std@@$$FQAE@ABV01@@Z:			; std::allocator<void>::allocator<void>
;	.proc.def	D:I(II)

; Function Header:
; max stack depth = 1
; function size = 2 bytes
; local varsig tk = 0x0 
; Exception Information:
; 0 handlers, each consisting of filtered handlers

;	.formal.i4 0,"_this$" SIG: Optional C Binding Modifier(token:0x9DF62E).Optional C Binding Modifier(token:0x9DF630).ptr.valueType (token:0x9DF633)

;	.proc.beg

; 197  : 		{	// construct by copying (do nothing)
; 198  : 		}

	ldarg.0				; _this$
$L5503:
	ret		
 .end ??0?$allocator@X@std@@$$FQAE@ABV01@@Z		; std::allocator<void>::allocator<void>
;	.proc.end.i4
text	ENDS
PUBLIC	??0?$allocator@X@std@@QAE@ABV01@@Z		; std::allocator<void>::allocator<void>
PUBLIC	__mep@??0?$allocator@X@std@@$$FQAE@ABV01@@Z
;	COMDAT __mep@??0?$allocator@X@std@@$$FQAE@ABV01@@Z
data	SEGMENT
__mep@??0?$allocator@X@std@@$$FQAE@ABV01@@Z TOKEN 06000038
; Function compile flags: /Odt
data	ENDS
;	COMDAT ??0?$allocator@X@std@@QAE@ABV01@@Z
text	SEGMENT
??0?$allocator@X@std@@QAE@ABV01@@Z PROC NEAR		; std::allocator<void>::allocator<void>, COMDAT
	jmp	DWORD PTR __mep@??0?$allocator@X@std@@$$FQAE@ABV01@@Z
??0?$allocator@X@std@@QAE@ABV01@@Z ENDP			; std::allocator<void>::allocator<void>
.global	??_7BFlattenable@@6B@				; BFlattenable::`vftable'
.global	??_R4BFlattenable@@6B@				; BFlattenable::`RTTI Complete Object Locator'
.global	??_R0?AVBFlattenable@@@8			; BFlattenable `RTTI Type Descriptor'
.global	??_R3BFlattenable@@8				; BFlattenable::`RTTI Class Hierarchy Descriptor'
.global	??_R2BFlattenable@@8				; BFlattenable::`RTTI Base Class Array'
.global	??_R1A@?0A@A@BFlattenable@@8			; BFlattenable::`RTTI Base Class Descriptor at (0,-1,0,0)'
.global	
	.bss
.local	,4
; File c:\documents and settings\stasiek.tc12\my documents\prc++\x86_libraries\bhapi\src\kits\support\flattenable.cpp
	.data
	.comdat	largest, ??_7BFlattenable@@6B@

??_7BFlattenable@@6B@:					; BFlattenable::`vftable'
	DD	??_R4BFlattenable@@6B@
??_7BFlattenable@@6B@:					; BFlattenable::`vftable'
	DD	??_EBFlattenable@@UAEPAXI@Z
??_7BFlattenable@@6B@:					; BFlattenable::`vftable'
	DD	__purecall
??_7BFlattenable@@6B@:					; BFlattenable::`vftable'
	DD	__purecall
??_7BFlattenable@@6B@:					; BFlattenable::`vftable'
	DD	?AllowsTypeCode@BFlattenable@@UBE_NI@Z
??_7BFlattenable@@6B@:					; BFlattenable::`vftable'
	DD	__purecall
??_7BFlattenable@@6B@:					; BFlattenable::`vftable'
	DD	__purecall
??_7BFlattenable@@6B@:					; BFlattenable::`vftable'
	DD	__purecall
	.rdataseg	.rdata$r
	.comdat	any, ??_R4BFlattenable@@6B@

??_R4BFlattenable@@6B@:					; BFlattenable::`RTTI Complete Object Locator'
	.word	0x0
??_R4BFlattenable@@6B@:					; BFlattenable::`RTTI Complete Object Locator'
	.word	0x0
??_R4BFlattenable@@6B@:					; BFlattenable::`RTTI Complete Object Locator'
	.word	0x0
??_R4BFlattenable@@6B@:					; BFlattenable::`RTTI Complete Object Locator'
	DD	??_R0?AVBFlattenable@@@8
??_R4BFlattenable@@6B@:					; BFlattenable::`RTTI Complete Object Locator'
	DD	??_R3BFlattenable@@8
	.data
	.comdat	any, ??_R0?AVBFlattenable@@@8

??_R0?AVBFlattenable@@@8:				; BFlattenable `RTTI Type Descriptor'
	DD	??_7type_info@@6B@
??_R0?AVBFlattenable@@@8:				; BFlattenable `RTTI Type Descriptor'
	.word	0x0
??_R0?AVBFlattenable@@@8:				; BFlattenable `RTTI Type Descriptor'
	.ascii	".?AVBFlattenable@@\000"
	.rdataseg	.rdata$r
	.comdat	any, ??_R3BFlattenable@@8

??_R3BFlattenable@@8:					; BFlattenable::`RTTI Class Hierarchy Descriptor'
	.word	0x0
??_R3BFlattenable@@8:					; BFlattenable::`RTTI Class Hierarchy Descriptor'
	.word	0x0
??_R3BFlattenable@@8:					; BFlattenable::`RTTI Class Hierarchy Descriptor'
	.word	0x1
??_R3BFlattenable@@8:					; BFlattenable::`RTTI Class Hierarchy Descriptor'
	DD	??_R2BFlattenable@@8
	.rdataseg	.rdata$r
	.comdat	any, ??_R2BFlattenable@@8

??_R2BFlattenable@@8:					; BFlattenable::`RTTI Base Class Array'
	DD	??_R1A@?0A@A@BFlattenable@@8
	.rdataseg	.rdata$r
	.comdat	any, ??_R1A@?0A@A@BFlattenable@@8

??_R1A@?0A@A@BFlattenable@@8:				; BFlattenable::`RTTI Base Class Descriptor at (0,-1,0,0)'
	DD	??_R0?AVBFlattenable@@@8
??_R1A@?0A@A@BFlattenable@@8:				; BFlattenable::`RTTI Base Class Descriptor at (0,-1,0,0)'
	.word	0x0
??_R1A@?0A@A@BFlattenable@@8:				; BFlattenable::`RTTI Base Class Descriptor at (0,-1,0,0)'
	.word	0x0
??_R1A@?0A@A@BFlattenable@@8:				; BFlattenable::`RTTI Base Class Descriptor at (0,-1,0,0)'
	.word	0xffffffff
??_R1A@?0A@A@BFlattenable@@8:				; BFlattenable::`RTTI Base Class Descriptor at (0,-1,0,0)'
	.word	0x0
??_R1A@?0A@A@BFlattenable@@8:				; BFlattenable::`RTTI Base Class Descriptor at (0,-1,0,0)'
	.word	0x0
; Function compile flags: /Odt
	.text
.global	??1BFlattenable@@$$FUAE@XZ			; BFlattenable::~BFlattenable
??1BFlattenable@@$$FUAE@XZ:				; BFlattenable::~BFlattenable
;	.proc.def	D:V(I)

; Function Header:
; max stack depth = 2
; function size = 11 bytes
; local varsig tk = 0x0 
; Exception Information:
; 0 handlers, each consisting of filtered handlers

;	.formal.i4 0,"_this$" SIG: Optional C Binding Modifier(token:0x9F5116).Optional C Binding Modifier(token:0x9F5118).ptr.valueType (token:0x9F511B)

;	.proc.beg

; 33   : {

	ldarg.0				; _this$
	ldsflda		??_7BFlattenable@@6B@
	unaligned	1		; u32 0x1
	stind.i4	
$L5518:

; 34   : }

	ret		
 .end ??1BFlattenable@@$$FUAE@XZ			; BFlattenable::~BFlattenable
;	.proc.end.void
text	ENDS
PUBLIC	??1BFlattenable@@UAE@XZ				; BFlattenable::~BFlattenable
PUBLIC	__mep@??1BFlattenable@@$$FUAE@XZ
;	COMDAT __mep@??1BFlattenable@@$$FUAE@XZ
data	SEGMENT
__mep@??1BFlattenable@@$$FUAE@XZ TOKEN 06000039
; Function compile flags: /Odt
data	ENDS
;	COMDAT ??1BFlattenable@@UAE@XZ
text	SEGMENT
??1BFlattenable@@UAE@XZ PROC NEAR			; BFlattenable::~BFlattenable, COMDAT
	jmp	DWORD PTR __mep@??1BFlattenable@@$$FUAE@XZ
??1BFlattenable@@UAE@XZ ENDP				; BFlattenable::~BFlattenable
.global	__unep@??1BFlattenable@@$$FUAE@XZ
	.rdata
	.comdat	any, __unep@??1BFlattenable@@$$FUAE@XZ

__unep@??1BFlattenable@@$$FUAE@XZ:
	DD	??1BFlattenable@@UAE@XZ
; Function compile flags: /Odt
	.text
	.comdat	any, ??_EBFlattenable@@$$FUAEPAXI@Z
.global	??_EBFlattenable@@$$FUAEPAXI@Z			; BFlattenable::`vector deleting destructor'
??_EBFlattenable@@$$FUAEPAXI@Z:				; BFlattenable::`vector deleting destructor'
;	.proc.def	D:I(II)

; Function Header:
; max stack depth = 4
; function size = 60 bytes
; local varsig tk = 0x0 
; Exception Information:
; 0 handlers, each consisting of filtered handlers

;	.formal.u4 1,"___flags$"
;	.formal.i4 0,"_this$" SIG: Optional C Binding Modifier(token:0x9F5116).Optional C Binding Modifier(token:0x9F5118).ptr.valueType (token:0x9F511B)

;	.proc.beg
	ldarg.1				; ___flags$
	ldc.i.2		2		; u32 0x2
	and		
	brfalse.s	$L5329
	ldarg.0				; _this$
	ldc.i.4		4		; u32 0x4
	ldarg.0				; _this$
	ldc.i.4		4		; i32 0x4
	sub		
	ldind.i4	
	ldsfld		__unep@??1BFlattenable@@$$FUAE@XZ
	call		??_M@$$FYGXPAXIHP6EX0@Z@Z
	ldarg.1				; ___flags$
	ldc.i.1		1		; u32 0x1
	and		
	brfalse.s	$L5330
	ldarg.0				; _this$
	ldc.i.4		4		; i32 0x4
	sub		
	call		??_V@$$FYAXPAX@Z
$L5330:
	ldarg.0				; _this$
	ldc.i.4		4		; i32 0x4
	sub		
	br.s		$L5540
$L5329:
	ldarg.0				; _this$
	call		??1BFlattenable@@$$FUAE@XZ
	ldarg.1				; ___flags$
	ldc.i.1		1		; u32 0x1
	and		
	brfalse.s	$L5332
	ldarg.0				; _this$
	call		??3@$$FYAXPAX@Z
$L5332:
	ldarg.0				; _this$
	br.s		$L5540
$L5540:
	ret		
 .end ??_EBFlattenable@@$$FUAEPAXI@Z			; BFlattenable::`vector deleting destructor'
;	.proc.end.i4
text	ENDS
PUBLIC	__mep@??_EBFlattenable@@$$FUAEPAXI@Z
;	COMDAT __mep@??_EBFlattenable@@$$FUAEPAXI@Z
data	SEGMENT
__mep@??_EBFlattenable@@$$FUAEPAXI@Z TOKEN 0600003A
; Function compile flags: /Odt
data	ENDS
;	COMDAT ??_EBFlattenable@@UAEPAXI@Z
text	SEGMENT
??_EBFlattenable@@UAEPAXI@Z PROC NEAR			; BFlattenable::`vector deleting destructor', COMDAT
	jmp	DWORD PTR __mep@??_EBFlattenable@@$$FUAEPAXI@Z
??_EBFlattenable@@UAEPAXI@Z ENDP			; BFlattenable::`vector deleting destructor'
.global	
.global	
	.bss
.local	$SigTok$030120110908,4
.local	,4
.local	,4
; Function compile flags: /Odt
	.text
.global	?AllowsTypeCode@BFlattenable@@$$FUBE_NI@Z	; BFlattenable::AllowsTypeCode
?AllowsTypeCode@BFlattenable@@$$FUBE_NI@Z:		; BFlattenable::AllowsTypeCode
;	.proc.def	D:I(II)

; Function Header:
; max stack depth = 4
; function size = 18 bytes
; local varsig tk = 0x0 
; Exception Information:
; 0 handlers, each consisting of filtered handlers

;	.formal.u4 1,"_code$"
;	.formal.i4 0,"_this$" SIG: Optional C Binding Modifier(token:0x9DECA2).Optional C Binding Modifier(token:0x9DECA4).ptr.Optional C Binding Modifier(token:0x9DECA7).valueType (token:0x9DECA9)

;	.proc.beg

; 40   : 	return(code == TypeCode());

	ldarg.1				; _code$
	ldarg.0				; _this$
	ldarg.0				; _this$
	ldind.i4	
	ldc.i.8		8		; i32 0x8
	add		
	ldind.i4	
	calli		D:I(I)
	ceq		
	conv.u1		
	br.s		$L5548
$L5548:

; 41   : }

	ret		
 .end ?AllowsTypeCode@BFlattenable@@$$FUBE_NI@Z		; BFlattenable::AllowsTypeCode
;	.proc.end.u1
text	ENDS
PUBLIC	__mep@?AllowsTypeCode@BFlattenable@@$$FUBE_NI@Z
;	COMDAT __mep@?AllowsTypeCode@BFlattenable@@$$FUBE_NI@Z
data	SEGMENT
__mep@?AllowsTypeCode@BFlattenable@@$$FUBE_NI@Z TOKEN 0600003B
; Function compile flags: /Odt
data	ENDS
;	COMDAT ?AllowsTypeCode@BFlattenable@@UBE_NI@Z
text	SEGMENT
?AllowsTypeCode@BFlattenable@@UBE_NI@Z PROC NEAR	; BFlattenable::AllowsTypeCode, COMDAT
	jmp	DWORD PTR __mep@?AllowsTypeCode@BFlattenable@@$$FUBE_NI@Z
?AllowsTypeCode@BFlattenable@@UBE_NI@Z ENDP		; BFlattenable::AllowsTypeCode
text	ENDS
END
