; Listing generated by Microsoft (R) Optimizing Compiler Version 13.10.3077 

; Generated by VC++ for Common Language Runtime
.file "\Documents and Settings\stasiek.TC12\My Documents\prc++\x86_libraries\Bhapi\src\kits\support\List.cpp"
.global	
.global	
	.bss
.local	,4
.local	,4
; Function compile flags: /Odt
; File c:\program files\microsoft visual studio .net 2003\vc7\include\xmemory
	.text
	.comdat	any, ??0?$allocator@X@std@@$$FQAE@ABV01@@Z
.global	??0?$allocator@X@std@@$$FQAE@ABV01@@Z		; std::allocator<void>::allocator<void>
??0?$allocator@X@std@@$$FQAE@ABV01@@Z:			; std::allocator<void>::allocator<void>
;	.proc.def	D:I(II)

; Function Header:
; max stack depth = 1
; function size = 2 bytes
; local varsig tk = 0x0 
; Exception Information:
; 0 handlers, each consisting of filtered handlers

;	.formal.i4 0,"_this$" SIG: Optional C Binding Modifier(token:0x9DD1FA).Optional C Binding Modifier(token:0x9DD1FC).ptr.valueType (token:0x9DD1FF)

;	.proc.beg

; 197  : 		{	// construct by copying (do nothing)
; 198  : 		}

	ldarg.0				; _this$
$L5810:
	ret		
 .end ??0?$allocator@X@std@@$$FQAE@ABV01@@Z		; std::allocator<void>::allocator<void>
;	.proc.end.i4
text	ENDS
PUBLIC	??0?$allocator@X@std@@QAE@ABV01@@Z		; std::allocator<void>::allocator<void>
PUBLIC	__mep@??0?$allocator@X@std@@$$FQAE@ABV01@@Z
;	COMDAT __mep@??0?$allocator@X@std@@$$FQAE@ABV01@@Z
data	SEGMENT
__mep@??0?$allocator@X@std@@$$FQAE@ABV01@@Z TOKEN 06000038
; Function compile flags: /Odt
data	ENDS
;	COMDAT ??0?$allocator@X@std@@QAE@ABV01@@Z
text	SEGMENT
??0?$allocator@X@std@@QAE@ABV01@@Z PROC NEAR		; std::allocator<void>::allocator<void>, COMDAT
	jmp	DWORD PTR __mep@??0?$allocator@X@std@@$$FQAE@ABV01@@Z
??0?$allocator@X@std@@QAE@ABV01@@Z ENDP			; std::allocator<void>::allocator<void>
.global	
.global	
.global	
	.bss
.local	,4
.local	,4
.local	,4
.local	$T5829,4
; Function compile flags: /Odt
; File c:\documents and settings\stasiek.tc12\my documents\prc++\x86_libraries\bhapi\src\kits\support\list.cpp
	.text
.global	?_Resize@BList@@$$FAAE_NH@Z			; BList::_Resize
?_Resize@BList@@$$FAAE_NH@Z:				; BList::_Resize
;	.proc.def	D:I(II)

; Function Header:
; max stack depth = 5
; function size = 391 bytes
; local varsig tk = 0x11000008 
; Exception Information:
; 0 handlers, each consisting of filtered handlers

;	.formal.i4 1,"_count$"
;	.formal.i4 0,"_this$" SIG: Optional C Binding Modifier(token:0x9F6C5A).Optional C Binding Modifier(token:0x9F6C5C).ptr.valueType (token:0x9F6C5F)
;	.local.i4 1,"_newObjects$5374" SIG: ptr.ptr.void
;	.local.i4 0,"_newObjects$" SIG: ptr.ptr.void

;	.proc.beg

; 37   : 	if(count <= 0)

	ldarg.1				; _count$
	ldc.i.0		0		; i32 0x0
	bgt		$L5372

; 38   : 	{
; 39   : 		if(fMinimumCount > 0)

	ldarg.0				; _this$
	ldc.i4.s	16		; i32 0x10
	add		
	unaligned	1		; u32 0x1
	ldind.i4	
	ldc.i.0		0		; i32 0x0
	ble.s		$L5373

; 40   : 		{
; 41   : 			void **newObjects = (void**)realloc(fObjects, (size_t)(fMinimumCount + 1) * sizeof(void*));

	ldarg.0				; _this$
	ldc.i.4		4		; i32 0x4
	add		
	unaligned	1		; u32 0x1
	ldind.i4	
	ldarg.0				; _this$
	ldc.i4.s	16		; i32 0x10
	add		
	unaligned	1		; u32 0x1
	ldind.i4	
	ldc.i.1		1		; i32 0x1
	add		
	ldc.i.4		4		; u32 0x4
	mul		
	call		?realloc@@$$J0YAPAXPAXI@Z
	stloc.1				; _newObjects$5374

; 42   : 			if(newObjects != NULL)

	ldloc.1				; _newObjects$5374
	brfalse.s	$L5378

; 43   : 			{
; 44   : 				fObjects = newObjects;

	ldarg.0				; _this$
	ldc.i.4		4		; i32 0x4
	add		
	ldloc.1				; _newObjects$5374
	unaligned	1		; u32 0x1
	stind.i4	

; 45   : 				fItemReal = fMinimumCount + 1;

	ldarg.0				; _this$
	ldc.i4.s	12		; i32 0xc
	add		
	ldarg.0				; _this$
	ldc.i4.s	16		; i32 0x10
	add		
	unaligned	1		; u32 0x1
	ldind.i4	
	ldc.i.1		1		; i32 0x1
	add		
	unaligned	1		; u32 0x1
	stind.i4	
$L5378:

; 46   : 			}
; 47   : 		}
; 48   : 		else

	br.s		$L5379
$L5373:

; 49   : 		{
; 50   : 			if(fObjects) free(fObjects);

	ldarg.0				; _this$
	ldc.i.4		4		; i32 0x4
	add		
	unaligned	1		; u32 0x1
	ldind.i4	
	brfalse.s	$L5380
	ldarg.0				; _this$
	ldc.i.4		4		; i32 0x4
	add		
	unaligned	1		; u32 0x1
	ldind.i4	
	call		?free@@$$J0YAXPAX@Z
$L5380:

; 51   : 			fObjects = NULL;

	ldarg.0				; _this$
	ldc.i.4		4		; i32 0x4
	add		
	ldc.i.0		0		; i32 0x0
	unaligned	1		; u32 0x1
	stind.i4	

; 52   : 			fItemReal = 0;

	ldarg.0				; _this$
	ldc.i4.s	12		; i32 0xc
	add		
	ldc.i.0		0		; i32 0x0
	unaligned	1		; u32 0x1
	stind.i4	
$L5379:

; 53   : 		}
; 54   : 
; 55   : 		fItemCount = 0;

	ldarg.0				; _this$
	ldc.i.8		8		; i32 0x8
	add		
	ldc.i.0		0		; i32 0x0
	unaligned	1		; u32 0x1
	stind.i4	

; 56   : 		if(fObjects) bzero(fObjects, sizeof(void*));

	ldarg.0				; _this$
	ldc.i.4		4		; i32 0x4
	add		
	unaligned	1		; u32 0x1
	ldind.i4	
	brfalse.s	$L5381
	ldarg.0				; _this$
	ldc.i.4		4		; i32 0x4
	add		
	unaligned	1		; u32 0x1
	ldind.i4	
	ldc.i.0		0		; i32 0x0
	ldc.i.4		4		; u32 0x4
	call		?memset@@$$J0YAPAXPAXHI@Z
	pop		
$L5381:

; 57   : 
; 58   : 		return true;

	ldc.i.1		1		; u8 0x1
	br		$L5825
$L5372:

; 59   : 	}
; 60   : 	else if(count > MAX_LIST_COUNT)

	ldarg.1				; _count$
	ldc.i4		2147483646	; i32 0x7ffffffe
	ble.s		$L5384

; 61   : 	{
; 62   : 		return false;

	ldc.i.0		0		; u8 0x0
	br		$L5825
$L5384:

; 63   : 	}
; 64   : 	else if(count <= fMinimumCount || count + 1 == fItemReal)

	ldarg.1				; _count$
	ldarg.0				; _this$
	ldc.i4.s	16		; i32 0x10
	add		
	unaligned	1		; u32 0x1
	ldind.i4	
	ble.s		$L5387
	ldarg.1				; _count$
	ldc.i.1		1		; i32 0x1
	add		
	ldarg.0				; _this$
	ldc.i4.s	12		; i32 0xc
	add		
	unaligned	1		; u32 0x1
	ldind.i4	
	bne.un.s	$L5383
$L5387:

; 65   : 	{
; 66   : 		fItemCount = count;

	ldarg.0				; _this$
	ldc.i.8		8		; i32 0x8
	add		
	ldarg.1				; _count$
	unaligned	1		; u32 0x1
	stind.i4	

; 67   : 		bzero(fObjects + count, sizeof(void*));

	ldarg.0				; _this$
	ldc.i.4		4		; i32 0x4
	add		
	unaligned	1		; u32 0x1
	ldind.i4	
	ldarg.1				; _count$
	ldc.i.4		4		; i32 0x4
	mul		
	add		
	ldc.i.0		0		; i32 0x0
	ldc.i.4		4		; u32 0x4
	call		?memset@@$$J0YAPAXPAXHI@Z
	pop		

; 68   : 		return true;

	ldc.i.1		1		; u8 0x1
	br		$L5825
$L5383:

; 69   : 	}
; 70   : 
; 71   : 	void **newObjects = (void**)realloc(fObjects, (size_t)(count + 1) * sizeof(void*));

	ldarg.0				; _this$
	ldc.i.4		4		; i32 0x4
	add		
	unaligned	1		; u32 0x1
	ldind.i4	
	ldarg.1				; _count$
	ldc.i.1		1		; i32 0x1
	add		
	ldc.i.4		4		; u32 0x4
	mul		
	call		?realloc@@$$J0YAPAXPAXI@Z
	stloc.0				; _newObjects$

; 72   : 	if(newObjects == NULL)

	ldloc.0				; _newObjects$
	brtrue.s	$L5393

; 73   : 	{
; 74   : 		if(count + 1 < fItemReal)

	ldarg.1				; _count$
	ldc.i.1		1		; i32 0x1
	add		
	ldarg.0				; _this$
	ldc.i4.s	12		; i32 0xc
	add		
	unaligned	1		; u32 0x1
	ldind.i4	
	bge.s		$L5394

; 75   : 		{
; 76   : 			bzero(fObjects + count, (size_t)(fItemReal - count) * sizeof(void*));

	ldarg.0				; _this$
	ldc.i.4		4		; i32 0x4
	add		
	unaligned	1		; u32 0x1
	ldind.i4	
	ldarg.1				; _count$
	ldc.i.4		4		; i32 0x4
	mul		
	add		
	ldc.i.0		0		; i32 0x0
	ldarg.0				; _this$
	ldc.i4.s	12		; i32 0xc
	add		
	unaligned	1		; u32 0x1
	ldind.i4	
	ldarg.1				; _count$
	sub		
	ldc.i.4		4		; u32 0x4
	mul		
	call		?memset@@$$J0YAPAXPAXHI@Z
	pop		

; 77   : 			fItemCount = count;

	ldarg.0				; _this$
	ldc.i.8		8		; i32 0x8
	add		
	ldarg.1				; _count$
	unaligned	1		; u32 0x1
	stind.i4	

; 78   : 			return true;

	ldc.i.1		1		; u8 0x1
	br.s		$L5825
$L5394:

; 79   : 		}
; 80   : 		else
; 81   : 		{
; 82   : 			return false;

	ldc.i.0		0		; u8 0x0
	br.s		$L5825
$L5393:

; 83   : 		}
; 84   : 	}
; 85   : 
; 86   : 	if(fItemReal < count + 1)

	ldarg.0				; _this$
	ldc.i4.s	12		; i32 0xc
	add		
	unaligned	1		; u32 0x1
	ldind.i4	
	ldarg.1				; _count$
	ldc.i.1		1		; i32 0x1
	add		
	bge.s		$L5398

; 87   : 		bzero(newObjects + fItemReal, (size_t)(count + 1 - fItemReal) * sizeof(void*));

	ldloc.0				; _newObjects$
	ldarg.0				; _this$
	ldc.i4.s	12		; i32 0xc
	add		
	unaligned	1		; u32 0x1
	ldind.i4	
	ldc.i.4		4		; i32 0x4
	mul		
	add		
	ldc.i.0		0		; i32 0x0
	ldarg.1				; _count$
	ldc.i.1		1		; i32 0x1
	add		
	ldarg.0				; _this$
	ldc.i4.s	12		; i32 0xc
	add		
	unaligned	1		; u32 0x1
	ldind.i4	
	sub		
	ldc.i.4		4		; u32 0x4
	mul		
	call		?memset@@$$J0YAPAXPAXHI@Z
	pop		

; 88   : 	else

	br.s		$L5401
$L5398:

; 89   : 		bzero(newObjects + count, sizeof(void*));

	ldloc.0				; _newObjects$
	ldarg.1				; _count$
	ldc.i.4		4		; i32 0x4
	mul		
	add		
	ldc.i.0		0		; i32 0x0
	ldc.i.4		4		; u32 0x4
	call		?memset@@$$J0YAPAXPAXHI@Z
	pop		
$L5401:

; 90   : 
; 91   : 	fObjects = newObjects;

	ldarg.0				; _this$
	ldc.i.4		4		; i32 0x4
	add		
	ldloc.0				; _newObjects$
	unaligned	1		; u32 0x1
	stind.i4	

; 92   : 	fItemCount = count;

	ldarg.0				; _this$
	ldc.i.8		8		; i32 0x8
	add		
	ldarg.1				; _count$
	unaligned	1		; u32 0x1
	stind.i4	

; 93   : 	fItemReal = count + 1;

	ldarg.0				; _this$
	ldc.i4.s	12		; i32 0xc
	add		
	ldarg.1				; _count$
	ldc.i.1		1		; i32 0x1
	add		
	unaligned	1		; u32 0x1
	stind.i4	

; 94   : 
; 95   : 	return true;

	ldc.i.1		1		; u8 0x1
	br.s		$L5825
$L5825:

; 96   : }

	ret		
 .end ?_Resize@BList@@$$FAAE_NH@Z			; BList::_Resize
;	.proc.end.u1
text	ENDS
PUBLIC	?_Resize@BList@@AAE_NH@Z			; BList::_Resize
PUBLIC	__mep@?_Resize@BList@@$$FAAE_NH@Z
;	COMDAT __mep@?_Resize@BList@@$$FAAE_NH@Z
data	SEGMENT
__mep@?_Resize@BList@@$$FAAE_NH@Z TOKEN 06000039
; Function compile flags: /Odt
data	ENDS
;	COMDAT ?_Resize@BList@@AAE_NH@Z
text	SEGMENT
?_Resize@BList@@AAE_NH@Z PROC NEAR			; BList::_Resize, COMDAT
	jmp	DWORD PTR __mep@?_Resize@BList@@$$FAAE_NH@Z
?_Resize@BList@@AAE_NH@Z ENDP				; BList::_Resize
.global	??_7BList@@6B@					; BList::`vftable'
.global	??_R4BList@@6B@					; BList::`RTTI Complete Object Locator'
.global	??_R0?AVBList@@@8				; BList `RTTI Type Descriptor'
.global	??_R3BList@@8					; BList::`RTTI Class Hierarchy Descriptor'
.global	??_R2BList@@8					; BList::`RTTI Base Class Array'
.global	??_R1A@?0A@A@BList@@8				; BList::`RTTI Base Class Descriptor at (0,-1,0,0)'
	.data
	.comdat	largest, ??_7BList@@6B@

??_7BList@@6B@:						; BList::`vftable'
	DD	??_R4BList@@6B@
??_7BList@@6B@:						; BList::`vftable'
	DD	??_EBList@@UAEPAXI@Z
	.rdataseg	.rdata$r
	.comdat	any, ??_R4BList@@6B@

??_R4BList@@6B@:					; BList::`RTTI Complete Object Locator'
	.word	0x0
??_R4BList@@6B@:					; BList::`RTTI Complete Object Locator'
	.word	0x0
??_R4BList@@6B@:					; BList::`RTTI Complete Object Locator'
	.word	0x0
??_R4BList@@6B@:					; BList::`RTTI Complete Object Locator'
	DD	??_R0?AVBList@@@8
??_R4BList@@6B@:					; BList::`RTTI Complete Object Locator'
	DD	??_R3BList@@8
	.data
	.comdat	any, ??_R0?AVBList@@@8

??_R0?AVBList@@@8:					; BList `RTTI Type Descriptor'
	DD	??_7type_info@@6B@
??_R0?AVBList@@@8:					; BList `RTTI Type Descriptor'
	.word	0x0
??_R0?AVBList@@@8:					; BList `RTTI Type Descriptor'
	.ascii	".?AVBList@@\000"
	.rdataseg	.rdata$r
	.comdat	any, ??_R3BList@@8

??_R3BList@@8:						; BList::`RTTI Class Hierarchy Descriptor'
	.word	0x0
??_R3BList@@8:						; BList::`RTTI Class Hierarchy Descriptor'
	.word	0x0
??_R3BList@@8:						; BList::`RTTI Class Hierarchy Descriptor'
	.word	0x1
??_R3BList@@8:						; BList::`RTTI Class Hierarchy Descriptor'
	DD	??_R2BList@@8
	.rdataseg	.rdata$r
	.comdat	any, ??_R2BList@@8

??_R2BList@@8:						; BList::`RTTI Base Class Array'
	DD	??_R1A@?0A@A@BList@@8
	.rdataseg	.rdata$r
	.comdat	any, ??_R1A@?0A@A@BList@@8

??_R1A@?0A@A@BList@@8:					; BList::`RTTI Base Class Descriptor at (0,-1,0,0)'
	DD	??_R0?AVBList@@@8
??_R1A@?0A@A@BList@@8:					; BList::`RTTI Base Class Descriptor at (0,-1,0,0)'
	.word	0x0
??_R1A@?0A@A@BList@@8:					; BList::`RTTI Base Class Descriptor at (0,-1,0,0)'
	.word	0x0
??_R1A@?0A@A@BList@@8:					; BList::`RTTI Base Class Descriptor at (0,-1,0,0)'
	.word	0xffffffff
??_R1A@?0A@A@BList@@8:					; BList::`RTTI Base Class Descriptor at (0,-1,0,0)'
	.word	0x0
??_R1A@?0A@A@BList@@8:					; BList::`RTTI Base Class Descriptor at (0,-1,0,0)'
	.word	0x0
; Function compile flags: /Odt
	.text
.global	??0BList@@$$FQAE@H@Z				; BList::BList
??0BList@@$$FQAE@H@Z:					; BList::BList
;	.proc.def	D:I(II)

; Function Header:
; max stack depth = 2
; function size = 84 bytes
; local varsig tk = 0x0 
; Exception Information:
; 0 handlers, each consisting of filtered handlers

;	.formal.i4 1,"_initialAllocSize$"
;	.formal.i4 0,"_this$" SIG: Optional C Binding Modifier(token:0x9F6C5A).Optional C Binding Modifier(token:0x9F6C5C).ptr.valueType (token:0x9F6C5F)

;	.proc.beg

; 101  : {

	ldarg.0				; _this$
	ldsflda		??_7BList@@6B@
	unaligned	1		; u32 0x1
	stind.i4	
	ldarg.0				; _this$
	ldc.i.4		4		; i32 0x4
	add		
	ldc.i.0		0		; i32 0x0
	unaligned	1		; u32 0x1
	stind.i4	
	ldarg.0				; _this$
	ldc.i.8		8		; i32 0x8
	add		
	ldc.i.0		0		; i32 0x0
	unaligned	1		; u32 0x1
	stind.i4	
	ldarg.0				; _this$
	ldc.i4.s	12		; i32 0xc
	add		
	ldc.i.0		0		; i32 0x0
	unaligned	1		; u32 0x1
	stind.i4	
	ldarg.0				; _this$
	ldc.i4.s	16		; i32 0x10
	add		
	ldc.i.0		0		; i32 0x0
	unaligned	1		; u32 0x1
	stind.i4	

; 102  : 	if(initialAllocSize > 0 && initialAllocSize <= MAX_LIST_COUNT)

	ldarg.1				; _initialAllocSize$
	ldc.i.0		0		; i32 0x0
	ble.s		$L5408
	ldarg.1				; _initialAllocSize$
	ldc.i4		2147483646	; i32 0x7ffffffe
	bgt.s		$L5408

; 103  : 	{
; 104  : 		if(_Resize(initialAllocSize))

	ldarg.0				; _this$
	ldarg.1				; _initialAllocSize$
	call		?_Resize@BList@@$$FAAE_NH@Z
	brfalse.s	$L5408

; 105  : 		{
; 106  : 			fMinimumCount = initialAllocSize;

	ldarg.0				; _this$
	ldc.i4.s	16		; i32 0x10
	add		
	ldarg.1				; _initialAllocSize$
	unaligned	1		; u32 0x1
	stind.i4	

; 107  : 			fItemCount = 0;

	ldarg.0				; _this$
	ldc.i.8		8		; i32 0x8
	add		
	ldc.i.0		0		; i32 0x0
	unaligned	1		; u32 0x1
	stind.i4	
$L5408:

; 108  : 		}
; 109  : 	}
; 110  : }

	ldarg.0				; _this$
$L5841:
	ret		
 .end ??0BList@@$$FQAE@H@Z				; BList::BList
;	.proc.end.i4
text	ENDS
PUBLIC	??0BList@@QAE@H@Z				; BList::BList
PUBLIC	__mep@??0BList@@$$FQAE@H@Z
;	COMDAT __mep@??0BList@@$$FQAE@H@Z
data	SEGMENT
__mep@??0BList@@$$FQAE@H@Z TOKEN 0600003A
; Function compile flags: /Odt
data	ENDS
;	COMDAT ??0BList@@QAE@H@Z
text	SEGMENT
??0BList@@QAE@H@Z PROC NEAR				; BList::BList, COMDAT
	jmp	DWORD PTR __mep@??0BList@@$$FQAE@H@Z
??0BList@@QAE@H@Z ENDP					; BList::BList
.global	__unep@??1BList@@$$FUAE@XZ
	.rdata
	.comdat	any, __unep@??1BList@@$$FUAE@XZ

__unep@??1BList@@$$FUAE@XZ:
	DD	??1BList@@UAE@XZ
; Function compile flags: /Odt
	.text
	.comdat	any, ??_EBList@@$$FUAEPAXI@Z
.global	??_EBList@@$$FUAEPAXI@Z				; BList::`vector deleting destructor'
??_EBList@@$$FUAEPAXI@Z:				; BList::`vector deleting destructor'
;	.proc.def	D:I(II)

; Function Header:
; max stack depth = 4
; function size = 61 bytes
; local varsig tk = 0x0 
; Exception Information:
; 0 handlers, each consisting of filtered handlers

;	.formal.u4 1,"___flags$"
;	.formal.i4 0,"_this$" SIG: Optional C Binding Modifier(token:0x9F6C5A).Optional C Binding Modifier(token:0x9F6C5C).ptr.valueType (token:0x9F6C5F)

;	.proc.beg
	ldarg.1				; ___flags$
	ldc.i.2		2		; u32 0x2
	and		
	brfalse.s	$L5418
	ldarg.0				; _this$
	ldc.i4.s	20		; u32 0x14
	ldarg.0				; _this$
	ldc.i.4		4		; i32 0x4
	sub		
	ldind.i4	
	ldsfld		__unep@??1BList@@$$FUAE@XZ
	call		??_M@$$FYGXPAXIHP6EX0@Z@Z
	ldarg.1				; ___flags$
	ldc.i.1		1		; u32 0x1
	and		
	brfalse.s	$L5419
	ldarg.0				; _this$
	ldc.i.4		4		; i32 0x4
	sub		
	call		??_V@$$FYAXPAX@Z
$L5419:
	ldarg.0				; _this$
	ldc.i.4		4		; i32 0x4
	sub		
	br.s		$L5858
$L5418:
	ldarg.0				; _this$
	call		??1BList@@$$FUAE@XZ
	ldarg.1				; ___flags$
	ldc.i.1		1		; u32 0x1
	and		
	brfalse.s	$L5421
	ldarg.0				; _this$
	call		??3@$$FYAXPAX@Z
$L5421:
	ldarg.0				; _this$
	br.s		$L5858
$L5858:
	ret		
 .end ??_EBList@@$$FUAEPAXI@Z				; BList::`vector deleting destructor'
;	.proc.end.i4
text	ENDS
PUBLIC	__mep@??_EBList@@$$FUAEPAXI@Z
;	COMDAT __mep@??_EBList@@$$FUAEPAXI@Z
data	SEGMENT
__mep@??_EBList@@$$FUAEPAXI@Z TOKEN 0600003B
; Function compile flags: /Odt
data	ENDS
;	COMDAT ??_EBList@@UAEPAXI@Z
text	SEGMENT
??_EBList@@UAEPAXI@Z PROC NEAR				; BList::`vector deleting destructor', COMDAT
	jmp	DWORD PTR __mep@??_EBList@@$$FUAEPAXI@Z
??_EBList@@UAEPAXI@Z ENDP				; BList::`vector deleting destructor'
; Function compile flags: /Odt
	.text
.global	??0BList@@$$FQAE@HH@Z				; BList::BList
??0BList@@$$FQAE@HH@Z:					; BList::BList
;	.proc.def	D:I(III)

; Function Header:
; max stack depth = 2
; function size = 104 bytes
; local varsig tk = 0x0 
; Exception Information:
; 0 handlers, each consisting of filtered handlers

;	.formal.i4 1,"_initialAllocSize$"
;	.formal.i4 2,"_nullItems$"
;	.formal.i4 0,"_this$" SIG: Optional C Binding Modifier(token:0x9F6C5A).Optional C Binding Modifier(token:0x9F6C5C).ptr.valueType (token:0x9F6C5F)

;	.proc.beg

; 115  : {

	ldarg.0				; _this$
	ldsflda		??_7BList@@6B@
	unaligned	1		; u32 0x1
	stind.i4	
	ldarg.0				; _this$
	ldc.i.4		4		; i32 0x4
	add		
	ldc.i.0		0		; i32 0x0
	unaligned	1		; u32 0x1
	stind.i4	
	ldarg.0				; _this$
	ldc.i.8		8		; i32 0x8
	add		
	ldc.i.0		0		; i32 0x0
	unaligned	1		; u32 0x1
	stind.i4	
	ldarg.0				; _this$
	ldc.i4.s	12		; i32 0xc
	add		
	ldc.i.0		0		; i32 0x0
	unaligned	1		; u32 0x1
	stind.i4	
	ldarg.0				; _this$
	ldc.i4.s	16		; i32 0x10
	add		
	ldc.i.0		0		; i32 0x0
	unaligned	1		; u32 0x1
	stind.i4	

; 116  : 	if(initialAllocSize > 0 && initialAllocSize <= MAX_LIST_COUNT)

	ldarg.1				; _initialAllocSize$
	ldc.i.0		0		; i32 0x0
	ble.s		$L5427
	ldarg.1				; _initialAllocSize$
	ldc.i4		2147483646	; i32 0x7ffffffe
	bgt.s		$L5427

; 117  : 	{
; 118  : 		if(_Resize(initialAllocSize))

	ldarg.0				; _this$
	ldarg.1				; _initialAllocSize$
	call		?_Resize@BList@@$$FAAE_NH@Z
	brfalse.s	$L5427

; 119  : 		{
; 120  : 			fMinimumCount = initialAllocSize;

	ldarg.0				; _this$
	ldc.i4.s	16		; i32 0x10
	add		
	ldarg.1				; _initialAllocSize$
	unaligned	1		; u32 0x1
	stind.i4	

; 121  : 			fItemCount = 0;

	ldarg.0				; _this$
	ldc.i.8		8		; i32 0x8
	add		
	ldc.i.0		0		; i32 0x0
	unaligned	1		; u32 0x1
	stind.i4	
$L5427:

; 122  : 		}
; 123  : 	}
; 124  : 
; 125  : 	if(nullItems > 0 && nullItems <= MAX_LIST_COUNT) _Resize(nullItems);

	ldarg.2				; _nullItems$
	ldc.i.0		0		; i32 0x0
	ble.s		$L5426
	ldarg.2				; _nullItems$
	ldc.i4		2147483646	; i32 0x7ffffffe
	bgt.s		$L5426
	ldarg.0				; _this$
	ldarg.2				; _nullItems$
	call		?_Resize@BList@@$$FAAE_NH@Z
	pop		
$L5426:

; 126  : }

	ldarg.0				; _this$
$L5871:
	ret		
 .end ??0BList@@$$FQAE@HH@Z				; BList::BList
;	.proc.end.i4
text	ENDS
PUBLIC	??0BList@@QAE@HH@Z				; BList::BList
PUBLIC	__mep@??0BList@@$$FQAE@HH@Z
;	COMDAT __mep@??0BList@@$$FQAE@HH@Z
data	SEGMENT
__mep@??0BList@@$$FQAE@HH@Z TOKEN 0600003C
; Function compile flags: /Odt
data	ENDS
;	COMDAT ??0BList@@QAE@HH@Z
text	SEGMENT
??0BList@@QAE@HH@Z PROC NEAR				; BList::BList, COMDAT
	jmp	DWORD PTR __mep@??0BList@@$$FQAE@HH@Z
??0BList@@QAE@HH@Z ENDP					; BList::BList
.global	
	.bss
.local	,4
; Function compile flags: /Odt
	.text
.global	??0BList@@$$FQAE@ABV0@@Z			; BList::BList
??0BList@@$$FQAE@ABV0@@Z:				; BList::BList
;	.proc.def	D:I(II)

; Function Header:
; max stack depth = 2
; function size = 54 bytes
; local varsig tk = 0x0 
; Exception Information:
; 0 handlers, each consisting of filtered handlers

;	.formal.i4 1,"_list$" SIG: Optional C Binding Modifier(token:0x9DD81A).ptr.Optional C Binding Modifier(token:0x9DD81D).valueType (token:0x9DD81F)
;	.formal.i4 0,"_this$" SIG: Optional C Binding Modifier(token:0x9F6C5A).Optional C Binding Modifier(token:0x9F6C5C).ptr.valueType (token:0x9F6C5F)

;	.proc.beg

; 131  : {

	ldarg.0				; _this$
	ldsflda		??_7BList@@6B@
	unaligned	1		; u32 0x1
	stind.i4	
	ldarg.0				; _this$
	ldc.i.4		4		; i32 0x4
	add		
	ldc.i.0		0		; i32 0x0
	unaligned	1		; u32 0x1
	stind.i4	
	ldarg.0				; _this$
	ldc.i.8		8		; i32 0x8
	add		
	ldc.i.0		0		; i32 0x0
	unaligned	1		; u32 0x1
	stind.i4	
	ldarg.0				; _this$
	ldc.i4.s	12		; i32 0xc
	add		
	ldc.i.0		0		; i32 0x0
	unaligned	1		; u32 0x1
	stind.i4	
	ldarg.0				; _this$
	ldc.i4.s	16		; i32 0x10
	add		
	ldc.i.0		0		; i32 0x0
	unaligned	1		; u32 0x1
	stind.i4	

; 132  : 	BList::operator=(list);

	ldarg.0				; _this$
	ldarg.1				; _list$
	call		??4BList@@$$FQAEAAV0@ABV0@@Z
	pop		

; 133  : }

	ldarg.0				; _this$
$L5883:
	ret		
 .end ??0BList@@$$FQAE@ABV0@@Z				; BList::BList
;	.proc.end.i4
text	ENDS
PUBLIC	??0BList@@QAE@ABV0@@Z				; BList::BList
PUBLIC	__mep@??0BList@@$$FQAE@ABV0@@Z
;	COMDAT __mep@??0BList@@$$FQAE@ABV0@@Z
data	SEGMENT
__mep@??0BList@@$$FQAE@ABV0@@Z TOKEN 0600003D
; Function compile flags: /Odt
data	ENDS
;	COMDAT ??0BList@@QAE@ABV0@@Z
text	SEGMENT
??0BList@@QAE@ABV0@@Z PROC NEAR				; BList::BList, COMDAT
	jmp	DWORD PTR __mep@??0BList@@$$FQAE@ABV0@@Z
??0BList@@QAE@ABV0@@Z ENDP				; BList::BList
; Function compile flags: /Odt
	.text
.global	??1BList@@$$FUAE@XZ				; BList::~BList
??1BList@@$$FUAE@XZ:					; BList::~BList
;	.proc.def	D:V(I)

; Function Header:
; max stack depth = 2
; function size = 32 bytes
; local varsig tk = 0x0 
; Exception Information:
; 0 handlers, each consisting of filtered handlers

;	.formal.i4 0,"_this$" SIG: Optional C Binding Modifier(token:0x9F6C5A).Optional C Binding Modifier(token:0x9F6C5C).ptr.valueType (token:0x9F6C5F)

;	.proc.beg

; 137  : {

	ldarg.0				; _this$
	ldsflda		??_7BList@@6B@
	unaligned	1		; u32 0x1
	stind.i4	

; 138  : 	if(fObjects) free(fObjects);

	ldarg.0				; _this$
	ldc.i.4		4		; i32 0x4
	add		
	unaligned	1		; u32 0x1
	ldind.i4	
	brfalse.s	$L5437
	ldarg.0				; _this$
	ldc.i.4		4		; i32 0x4
	add		
	unaligned	1		; u32 0x1
	ldind.i4	
	call		?free@@$$J0YAXPAX@Z
$L5437:
$L5891:

; 139  : }

	ret		
 .end ??1BList@@$$FUAE@XZ				; BList::~BList
;	.proc.end.void
text	ENDS
PUBLIC	__mep@??1BList@@$$FUAE@XZ
;	COMDAT __mep@??1BList@@$$FUAE@XZ
data	SEGMENT
__mep@??1BList@@$$FUAE@XZ TOKEN 0600003E
; Function compile flags: /Odt
data	ENDS
;	COMDAT ??1BList@@UAE@XZ
text	SEGMENT
??1BList@@UAE@XZ PROC NEAR				; BList::~BList, COMDAT
	jmp	DWORD PTR __mep@??1BList@@$$FUAE@XZ
??1BList@@UAE@XZ ENDP					; BList::~BList
; Function compile flags: /Odt
	.text
.global	??4BList@@$$FQAEAAV0@ABV0@@Z			; BList::operator=
??4BList@@$$FQAEAAV0@ABV0@@Z:				; BList::operator=
;	.proc.def	D:I(II)

; Function Header:
; max stack depth = 3
; function size = 133 bytes
; local varsig tk = 0x0 
; Exception Information:
; 0 handlers, each consisting of filtered handlers

;	.formal.i4 1,"_from$" SIG: Optional C Binding Modifier(token:0x9DD81A).ptr.Optional C Binding Modifier(token:0x9DD81D).valueType (token:0x9DD81F)
;	.formal.i4 0,"_this$" SIG: Optional C Binding Modifier(token:0x9F6C5A).Optional C Binding Modifier(token:0x9F6C5C).ptr.valueType (token:0x9F6C5F)

;	.proc.beg

; 145  : 	if(fObjects) free(fObjects);

	ldarg.0				; _this$
	ldc.i.4		4		; i32 0x4
	add		
	unaligned	1		; u32 0x1
	ldind.i4	
	brfalse.s	$L5443
	ldarg.0				; _this$
	ldc.i.4		4		; i32 0x4
	add		
	unaligned	1		; u32 0x1
	ldind.i4	
	call		?free@@$$J0YAXPAX@Z
$L5443:

; 146  : 	fObjects = NULL;

	ldarg.0				; _this$
	ldc.i.4		4		; i32 0x4
	add		
	ldc.i.0		0		; i32 0x0
	unaligned	1		; u32 0x1
	stind.i4	

; 147  : 	fItemCount = 0;

	ldarg.0				; _this$
	ldc.i.8		8		; i32 0x8
	add		
	ldc.i.0		0		; i32 0x0
	unaligned	1		; u32 0x1
	stind.i4	

; 148  : 	fItemReal = 0;

	ldarg.0				; _this$
	ldc.i4.s	12		; i32 0xc
	add		
	ldc.i.0		0		; i32 0x0
	unaligned	1		; u32 0x1
	stind.i4	

; 149  : 	fMinimumCount = 0;

	ldarg.0				; _this$
	ldc.i4.s	16		; i32 0x10
	add		
	ldc.i.0		0		; i32 0x0
	unaligned	1		; u32 0x1
	stind.i4	

; 150  : 
; 151  : 	if(from.fMinimumCount > 0 && from.fMinimumCount <= MAX_LIST_COUNT)

	ldarg.1				; _from$
	ldc.i4.s	16		; i32 0x10
	add		
	unaligned	1		; u32 0x1
	ldind.i4	
	ldc.i.0		0		; i32 0x0
	ble.s		$L5444
	ldarg.1				; _from$
	ldc.i4.s	16		; i32 0x10
	add		
	unaligned	1		; u32 0x1
	ldind.i4	
	ldc.i4		2147483646	; i32 0x7ffffffe
	bgt.s		$L5444

; 152  : 	{
; 153  : 		if(_Resize(from.fMinimumCount))

	ldarg.0				; _this$
	ldarg.1				; _from$
	ldc.i4.s	16		; i32 0x10
	add		
	unaligned	1		; u32 0x1
	ldind.i4	
	call		?_Resize@BList@@$$FAAE_NH@Z
	brfalse.s	$L5444

; 154  : 		{
; 155  : 			fMinimumCount = from.fMinimumCount;

	ldarg.0				; _this$
	ldc.i4.s	16		; i32 0x10
	add		
	ldarg.1				; _from$
	ldc.i4.s	16		; i32 0x10
	add		
	unaligned	1		; u32 0x1
	ldind.i4	
	unaligned	1		; u32 0x1
	stind.i4	

; 156  : 			fItemCount = 0;

	ldarg.0				; _this$
	ldc.i.8		8		; i32 0x8
	add		
	ldc.i.0		0		; i32 0x0
	unaligned	1		; u32 0x1
	stind.i4	
$L5444:

; 157  : 		}
; 158  : 	}
; 159  : 
; 160  : 	BList::AddList(&from);

	ldarg.0				; _this$
	ldarg.1				; _from$
	call		?AddList@BList@@$$FQAE_NPBV1@@Z
	pop		

; 161  : 
; 162  : 	return *this;

	ldarg.0				; _this$
	br.s		$L5903
$L5903:

; 163  : }

	ret		
 .end ??4BList@@$$FQAEAAV0@ABV0@@Z			; BList::operator=
;	.proc.end.i4
text	ENDS
PUBLIC	??4BList@@QAEAAV0@ABV0@@Z			; BList::operator=
PUBLIC	__mep@??4BList@@$$FQAEAAV0@ABV0@@Z
;	COMDAT __mep@??4BList@@$$FQAEAAV0@ABV0@@Z
data	SEGMENT
__mep@??4BList@@$$FQAEAAV0@ABV0@@Z TOKEN 0600003F
; Function compile flags: /Odt
data	ENDS
;	COMDAT ??4BList@@QAEAAV0@ABV0@@Z
text	SEGMENT
??4BList@@QAEAAV0@ABV0@@Z PROC NEAR			; BList::operator=, COMDAT
	jmp	DWORD PTR __mep@??4BList@@$$FQAEAAV0@ABV0@@Z
??4BList@@QAEAAV0@ABV0@@Z ENDP				; BList::operator=
.global	
	.bss
.local	,4
; Function compile flags: /Odt
	.text
.global	?AddItem@BList@@$$FQAE_NPAX@Z			; BList::AddItem
?AddItem@BList@@$$FQAE_NPAX@Z:				; BList::AddItem
;	.proc.def	D:I(II)

; Function Header:
; max stack depth = 3
; function size = 62 bytes
; local varsig tk = 0x0 
; Exception Information:
; 0 handlers, each consisting of filtered handlers

;	.formal.i4 1,"_item$" SIG: ptr.void
;	.formal.i4 0,"_this$" SIG: Optional C Binding Modifier(token:0x9F6C5A).Optional C Binding Modifier(token:0x9F6C5C).ptr.valueType (token:0x9F6C5F)

;	.proc.beg

; 169  : 	if(fItemCount >= MAX_LIST_COUNT) return false;

	ldarg.0				; _this$
	ldc.i.8		8		; i32 0x8
	add		
	unaligned	1		; u32 0x1
	ldind.i4	
	ldc.i4		2147483646	; i32 0x7ffffffe
	blt.s		$L5450
	ldc.i.0		0		; u8 0x0
	br.s		$L5915
$L5450:

; 170  : 
; 171  : 	if(!_Resize(fItemCount + 1)) return false;

	ldarg.0				; _this$
	ldarg.0				; _this$
	ldc.i.8		8		; i32 0x8
	add		
	unaligned	1		; u32 0x1
	ldind.i4	
	ldc.i.1		1		; i32 0x1
	add		
	call		?_Resize@BList@@$$FAAE_NH@Z
	brtrue.s	$L5451
	ldc.i.0		0		; u8 0x0
	br.s		$L5915
$L5451:

; 172  : 
; 173  : 	fObjects[fItemCount - 1] = item;

	ldarg.0				; _this$
	ldc.i.4		4		; i32 0x4
	add		
	unaligned	1		; u32 0x1
	ldind.i4	
	ldarg.0				; _this$
	ldc.i.8		8		; i32 0x8
	add		
	unaligned	1		; u32 0x1
	ldind.i4	
	ldc.i.1		1		; i32 0x1
	sub		
	ldc.i.4		4		; i32 0x4
	mul		
	add		
	ldarg.1				; _item$
	stind.i4	

; 174  : 
; 175  : 	return true;

	ldc.i.1		1		; u8 0x1
	br.s		$L5915
$L5915:

; 176  : }

	ret		
 .end ?AddItem@BList@@$$FQAE_NPAX@Z			; BList::AddItem
;	.proc.end.u1
text	ENDS
PUBLIC	?AddItem@BList@@QAE_NPAX@Z			; BList::AddItem
PUBLIC	__mep@?AddItem@BList@@$$FQAE_NPAX@Z
;	COMDAT __mep@?AddItem@BList@@$$FQAE_NPAX@Z
data	SEGMENT
__mep@?AddItem@BList@@$$FQAE_NPAX@Z TOKEN 06000040
; Function compile flags: /Odt
data	ENDS
;	COMDAT ?AddItem@BList@@QAE_NPAX@Z
text	SEGMENT
?AddItem@BList@@QAE_NPAX@Z PROC NEAR			; BList::AddItem, COMDAT
	jmp	DWORD PTR __mep@?AddItem@BList@@$$FQAE_NPAX@Z
?AddItem@BList@@QAE_NPAX@Z ENDP				; BList::AddItem
; Function compile flags: /Odt
	.text
.global	?AddItem@BList@@$$FQAE_NPAXH@Z			; BList::AddItem
?AddItem@BList@@$$FQAE_NPAXH@Z:				; BList::AddItem
;	.proc.def	D:I(III)

; Function Header:
; max stack depth = 5
; function size = 159 bytes
; local varsig tk = 0x0 
; Exception Information:
; 0 handlers, each consisting of filtered handlers

;	.formal.i4 1,"_item$" SIG: ptr.void
;	.formal.i4 2,"_atIndex$"
;	.formal.i4 0,"_this$" SIG: Optional C Binding Modifier(token:0x9F6C5A).Optional C Binding Modifier(token:0x9F6C5C).ptr.valueType (token:0x9F6C5F)

;	.proc.beg

; 183  : 	if(atIndex < 0 || atIndex > fItemCount) return false;

	ldarg.2				; _atIndex$
	ldc.i.0		0		; i32 0x0
	blt.s		$L5458
	ldarg.2				; _atIndex$
	ldarg.0				; _this$
	ldc.i.8		8		; i32 0x8
	add		
	unaligned	1		; u32 0x1
	ldind.i4	
	ble.s		$L5457
$L5458:
	ldc.i.0		0		; u8 0x0
	br		$L5928
$L5457:

; 184  : 	if(atIndex == fItemCount) return AddItem(item);

	ldarg.2				; _atIndex$
	ldarg.0				; _this$
	ldc.i.8		8		; i32 0x8
	add		
	unaligned	1		; u32 0x1
	ldind.i4	
	bne.un.s	$L5459
	ldarg.0				; _this$
	ldarg.1				; _item$
	call		?AddItem@BList@@$$FQAE_NPAX@Z
	br		$L5928
$L5459:

; 185  : 	if(fItemCount >= MAX_LIST_COUNT) return false;

	ldarg.0				; _this$
	ldc.i.8		8		; i32 0x8
	add		
	unaligned	1		; u32 0x1
	ldind.i4	
	ldc.i4		2147483646	; i32 0x7ffffffe
	blt.s		$L5460
	ldc.i.0		0		; u8 0x0
	br.s		$L5928
$L5460:

; 186  : 
; 187  : 	if(!_Resize(fItemCount + 1)) return false;

	ldarg.0				; _this$
	ldarg.0				; _this$
	ldc.i.8		8		; i32 0x8
	add		
	unaligned	1		; u32 0x1
	ldind.i4	
	ldc.i.1		1		; i32 0x1
	add		
	call		?_Resize@BList@@$$FAAE_NH@Z
	brtrue.s	$L5461
	ldc.i.0		0		; u8 0x0
	br.s		$L5928
$L5461:

; 188  : 
; 189  : 	if(memmove(fObjects + atIndex + 1, fObjects + atIndex, (fItemCount - (atIndex + 1)) * sizeof(void*)) == NULL)

	ldarg.0				; _this$
	ldc.i.4		4		; i32 0x4
	add		
	unaligned	1		; u32 0x1
	ldind.i4	
	ldarg.2				; _atIndex$
	ldc.i.4		4		; i32 0x4
	mul		
	add		
	ldc.i.4		4		; i32 0x4
	add		
	ldarg.0				; _this$
	ldc.i.4		4		; i32 0x4
	add		
	unaligned	1		; u32 0x1
	ldind.i4	
	ldarg.2				; _atIndex$
	ldc.i.4		4		; i32 0x4
	mul		
	add		
	ldarg.0				; _this$
	ldc.i.8		8		; i32 0x8
	add		
	unaligned	1		; u32 0x1
	ldind.i4	
	ldarg.2				; _atIndex$
	ldc.i.1		1		; i32 0x1
	add		
	sub		
	ldc.i.4		4		; u32 0x4
	mul		
	call		?memmove@@$$J0YAPAXPAXPBXI@Z
	brtrue.s	$L5463

; 190  : 	{
; 191  : 		fItemCount--;

	ldarg.0				; _this$
	ldc.i.8		8		; i32 0x8
	add		
	ldarg.0				; _this$
	ldc.i.8		8		; i32 0x8
	add		
	unaligned	1		; u32 0x1
	ldind.i4	
	ldc.i.1		1		; i32 0x1
	sub		
	unaligned	1		; u32 0x1
	stind.i4	

; 192  : 		return false;

	ldc.i.0		0		; u8 0x0
	br.s		$L5928
$L5463:

; 193  : 	}
; 194  : 
; 195  : 	fObjects[atIndex] = item;

	ldarg.0				; _this$
	ldc.i.4		4		; i32 0x4
	add		
	unaligned	1		; u32 0x1
	ldind.i4	
	ldarg.2				; _atIndex$
	ldc.i.4		4		; i32 0x4
	mul		
	add		
	ldarg.1				; _item$
	stind.i4	

; 196  : 
; 197  : 	return true;

	ldc.i.1		1		; u8 0x1
	br.s		$L5928
$L5928:

; 198  : }

	ret		
 .end ?AddItem@BList@@$$FQAE_NPAXH@Z			; BList::AddItem
;	.proc.end.u1
text	ENDS
PUBLIC	?AddItem@BList@@QAE_NPAXH@Z			; BList::AddItem
PUBLIC	__mep@?AddItem@BList@@$$FQAE_NPAXH@Z
;	COMDAT __mep@?AddItem@BList@@$$FQAE_NPAXH@Z
data	SEGMENT
__mep@?AddItem@BList@@$$FQAE_NPAXH@Z TOKEN 06000041
; Function compile flags: /Odt
data	ENDS
;	COMDAT ?AddItem@BList@@QAE_NPAXH@Z
text	SEGMENT
?AddItem@BList@@QAE_NPAXH@Z PROC NEAR			; BList::AddItem, COMDAT
	jmp	DWORD PTR __mep@?AddItem@BList@@$$FQAE_NPAXH@Z
?AddItem@BList@@QAE_NPAXH@Z ENDP			; BList::AddItem
.global	
	.bss
.local	,4
.local	$T5942,4
; Function compile flags: /Odt
	.text
.global	?AddList@BList@@$$FQAE_NPBV1@@Z			; BList::AddList
?AddList@BList@@$$FQAE_NPBV1@@Z:			; BList::AddList
;	.proc.def	D:I(II)

; Function Header:
; max stack depth = 4
; function size = 149 bytes
; local varsig tk = 0x1100000C 
; Exception Information:
; 0 handlers, each consisting of filtered handlers

;	.formal.i4 1,"_newItems$" SIG: ptr.Optional C Binding Modifier(token:0x9DF8FB).valueType (token:0x9DF8FD)
;	.formal.i4 0,"_this$" SIG: Optional C Binding Modifier(token:0x9F6C5A).Optional C Binding Modifier(token:0x9F6C5C).ptr.valueType (token:0x9F6C5F)
;	.local.i4 0,"_newData$" SIG: ptr.void

;	.proc.beg

; 204  : 	if(!newItems) return false;

	ldarg.1				; _newItems$
	brtrue.s	$L5468
	ldc.i.0		0		; u8 0x0
	br		$L5940
$L5468:

; 205  : 	if(newItems->IsEmpty()) return false;

	ldarg.1				; _newItems$
	call		?IsEmpty@BList@@$$FQBE_NXZ
	brfalse.s	$L5469
	ldc.i.0		0		; u8 0x0
	br		$L5940
$L5469:

; 206  : 
; 207  : 	if(MAX_LIST_COUNT - fItemCount < newItems->CountItems()) return false;

	ldc.i4		2147483646	; i32 0x7ffffffe
	ldarg.0				; _this$
	ldc.i.8		8		; i32 0x8
	add		
	unaligned	1		; u32 0x1
	ldind.i4	
	sub		
	ldarg.1				; _newItems$
	call		?CountItems@BList@@$$FQBEHXZ
	bge.s		$L5470
	ldc.i.0		0		; u8 0x0
	br.s		$L5940
$L5470:

; 208  : 
; 209  : 	if(!_Resize(fItemCount + newItems->CountItems())) return false;

	ldarg.0				; _this$
	ldarg.0				; _this$
	ldc.i.8		8		; i32 0x8
	add		
	unaligned	1		; u32 0x1
	ldind.i4	
	ldarg.1				; _newItems$
	call		?CountItems@BList@@$$FQBEHXZ
	add		
	call		?_Resize@BList@@$$FAAE_NH@Z
	brtrue.s	$L5471
	ldc.i.0		0		; u8 0x0
	br.s		$L5940
$L5471:

; 210  : 
; 211  : 	void *newData = (void*)(newItems->Items());

	ldarg.1				; _newItems$
	call		?Items@BList@@$$FQBEPAPAXXZ
	stloc.0				; _newData$

; 212  : 
; 213  : 	if(memcpy(fObjects + fItemCount - newItems->CountItems(), newData, newItems->CountItems() * sizeof(void*)) == NULL)

	ldarg.0				; _this$
	ldc.i.4		4		; i32 0x4
	add		
	unaligned	1		; u32 0x1
	ldind.i4	
	ldarg.0				; _this$
	ldc.i.8		8		; i32 0x8
	add		
	unaligned	1		; u32 0x1
	ldind.i4	
	ldc.i.4		4		; i32 0x4
	mul		
	add		
	ldarg.1				; _newItems$
	call		?CountItems@BList@@$$FQBEHXZ
	ldc.i.4		4		; i32 0x4
	mul		
	sub		
	ldloc.0				; _newData$
	ldarg.1				; _newItems$
	call		?CountItems@BList@@$$FQBEHXZ
	ldc.i.4		4		; u32 0x4
	mul		
	call		?memcpy@@$$J0YAPAXPAXPBXI@Z
	brtrue.s	$L5475

; 214  : 	{
; 215  : 		fItemCount -= newItems->CountItems();

	ldarg.0				; _this$
	ldc.i.8		8		; i32 0x8
	add		
	ldarg.0				; _this$
	ldc.i.8		8		; i32 0x8
	add		
	unaligned	1		; u32 0x1
	ldind.i4	
	ldarg.1				; _newItems$
	call		?CountItems@BList@@$$FQBEHXZ
	sub		
	unaligned	1		; u32 0x1
	stind.i4	

; 216  : 		return false;

	ldc.i.0		0		; u8 0x0
	br.s		$L5940
$L5475:

; 217  : 	}
; 218  : 
; 219  : 	return true;

	ldc.i.1		1		; u8 0x1
	br.s		$L5940
$L5940:

; 220  : }

	ret		
 .end ?AddList@BList@@$$FQAE_NPBV1@@Z			; BList::AddList
;	.proc.end.u1
text	ENDS
PUBLIC	?AddList@BList@@QAE_NPBV1@@Z			; BList::AddList
PUBLIC	__mep@?AddList@BList@@$$FQAE_NPBV1@@Z
;	COMDAT __mep@?AddList@BList@@$$FQAE_NPBV1@@Z
data	SEGMENT
__mep@?AddList@BList@@$$FQAE_NPBV1@@Z TOKEN 06000042
; Function compile flags: /Odt
data	ENDS
;	COMDAT ?AddList@BList@@QAE_NPBV1@@Z
text	SEGMENT
?AddList@BList@@QAE_NPBV1@@Z PROC NEAR			; BList::AddList, COMDAT
	jmp	DWORD PTR __mep@?AddList@BList@@$$FQAE_NPBV1@@Z
?AddList@BList@@QAE_NPBV1@@Z ENDP			; BList::AddList
	.bss
.local	$T5959,4
; Function compile flags: /Odt
	.text
.global	?AddList@BList@@$$FQAE_NPBV1@H@Z		; BList::AddList
?AddList@BList@@$$FQAE_NPBV1@H@Z:			; BList::AddList
;	.proc.def	D:I(III)

; Function Header:
; max stack depth = 5
; function size = 388 bytes
; local varsig tk = 0x1100000D 
; Exception Information:
; 0 handlers, each consisting of filtered handlers

;	.formal.i4 1,"_newItems$" SIG: ptr.Optional C Binding Modifier(token:0x9DF8FB).valueType (token:0x9DF8FD)
;	.formal.i4 2,"_atIndex$"
;	.formal.i4 0,"_this$" SIG: Optional C Binding Modifier(token:0x9F6C5A).Optional C Binding Modifier(token:0x9F6C5C).ptr.valueType (token:0x9F6C5F)
;	.local.i4 0,"_newObjects$" SIG: ptr.ptr.void

;	.proc.beg

; 226  : 	if(fItemCount == 0 && atIndex == 0) return AddList(newItems);

	ldarg.0				; _this$
	ldc.i.8		8		; i32 0x8
	add		
	unaligned	1		; u32 0x1
	ldind.i4	
	brtrue.s	$L5482
	ldarg.2				; _atIndex$
	brtrue.s	$L5482
	ldarg.0				; _this$
	ldarg.1				; _newItems$
	call		?AddList@BList@@$$FQAE_NPBV1@@Z
	br		$L5958
$L5482:

; 227  : 
; 228  : 	if(atIndex < 0 || atIndex >= fItemCount) return false;

	ldarg.2				; _atIndex$
	ldc.i.0		0		; i32 0x0
	blt.s		$L5484
	ldarg.2				; _atIndex$
	ldarg.0				; _this$
	ldc.i.8		8		; i32 0x8
	add		
	unaligned	1		; u32 0x1
	ldind.i4	
	blt.s		$L5483
$L5484:
	ldc.i.0		0		; u8 0x0
	br		$L5958
$L5483:

; 229  : 
; 230  : 	if(!newItems) return false;

	ldarg.1				; _newItems$
	brtrue.s	$L5485
	ldc.i.0		0		; u8 0x0
	br		$L5958
$L5485:

; 231  : 	if(newItems->IsEmpty()) return false;

	ldarg.1				; _newItems$
	call		?IsEmpty@BList@@$$FQBE_NXZ
	brfalse.s	$L5486
	ldc.i.0		0		; u8 0x0
	br		$L5958
$L5486:

; 232  : 
; 233  : 	if(MAX_LIST_COUNT - fItemCount < newItems->fItemCount) return false;

	ldc.i4		2147483646	; i32 0x7ffffffe
	ldarg.0				; _this$
	ldc.i.8		8		; i32 0x8
	add		
	unaligned	1		; u32 0x1
	ldind.i4	
	sub		
	ldarg.1				; _newItems$
	ldc.i.8		8		; i32 0x8
	add		
	unaligned	1		; u32 0x1
	ldind.i4	
	bge.s		$L5487
	ldc.i.0		0		; u8 0x0
	br		$L5958
$L5487:

; 234  : 
; 235  : 	if(!_Resize(fItemCount + newItems->fItemCount)) return false;

	ldarg.0				; _this$
	ldarg.0				; _this$
	ldc.i.8		8		; i32 0x8
	add		
	unaligned	1		; u32 0x1
	ldind.i4	
	ldarg.1				; _newItems$
	ldc.i.8		8		; i32 0x8
	add		
	unaligned	1		; u32 0x1
	ldind.i4	
	add		
	call		?_Resize@BList@@$$FAAE_NH@Z
	brtrue.s	$L5488
	ldc.i.0		0		; u8 0x0
	br		$L5958
$L5488:

; 236  : 
; 237  : 	void **newObjects = (void**)malloc((fItemCount - atIndex + newItems->fItemCount) * sizeof(void*));

	ldarg.0				; _this$
	ldc.i.8		8		; i32 0x8
	add		
	unaligned	1		; u32 0x1
	ldind.i4	
	ldarg.2				; _atIndex$
	sub		
	ldarg.1				; _newItems$
	ldc.i.8		8		; i32 0x8
	add		
	unaligned	1		; u32 0x1
	ldind.i4	
	add		
	ldc.i.4		4		; u32 0x4
	mul		
	call		?malloc@@$$J0YAPAXI@Z
	stloc.0				; _newObjects$

; 238  : 	if(!newObjects)

	ldloc.0				; _newObjects$
	brtrue.s	$L5492

; 239  : 	{
; 240  : 		fItemCount -= newItems->fItemCount;

	ldarg.0				; _this$
	ldc.i.8		8		; i32 0x8
	add		
	ldarg.0				; _this$
	ldc.i.8		8		; i32 0x8
	add		
	unaligned	1		; u32 0x1
	ldind.i4	
	ldarg.1				; _newItems$
	ldc.i.8		8		; i32 0x8
	add		
	unaligned	1		; u32 0x1
	ldind.i4	
	sub		
	unaligned	1		; u32 0x1
	stind.i4	

; 241  : 		return false;

	ldc.i.0		0		; u8 0x0
	br		$L5958
$L5492:

; 242  : 	}
; 243  : 
; 244  : 	if(memcpy(newObjects, newItems->fObjects, newItems->fItemCount * sizeof(void*)) == NULL)

	ldloc.0				; _newObjects$
	ldarg.1				; _newItems$
	ldc.i.4		4		; i32 0x4
	add		
	unaligned	1		; u32 0x1
	ldind.i4	
	ldarg.1				; _newItems$
	ldc.i.8		8		; i32 0x8
	add		
	unaligned	1		; u32 0x1
	ldind.i4	
	ldc.i.4		4		; u32 0x4
	mul		
	call		?memcpy@@$$J0YAPAXPAXPBXI@Z
	brtrue.s	$L5494

; 245  : 	{
; 246  : 		delete newObjects;

	ldloc.0				; _newObjects$
	call		??3@$$FYAXPAX@Z

; 247  : 		fItemCount -= newItems->fItemCount;

	ldarg.0				; _this$
	ldc.i.8		8		; i32 0x8
	add		
	ldarg.0				; _this$
	ldc.i.8		8		; i32 0x8
	add		
	unaligned	1		; u32 0x1
	ldind.i4	
	ldarg.1				; _newItems$
	ldc.i.8		8		; i32 0x8
	add		
	unaligned	1		; u32 0x1
	ldind.i4	
	sub		
	unaligned	1		; u32 0x1
	stind.i4	

; 248  : 		return false;

	ldc.i.0		0		; u8 0x0
	br		$L5958
$L5494:

; 249  : 	}
; 250  : 
; 251  : 	if(memcpy(newObjects + newItems->fItemCount, fObjects + atIndex, (fItemCount - atIndex) * sizeof(void*)) == NULL)

	ldloc.0				; _newObjects$
	ldarg.1				; _newItems$
	ldc.i.8		8		; i32 0x8
	add		
	unaligned	1		; u32 0x1
	ldind.i4	
	ldc.i.4		4		; i32 0x4
	mul		
	add		
	ldarg.0				; _this$
	ldc.i.4		4		; i32 0x4
	add		
	unaligned	1		; u32 0x1
	ldind.i4	
	ldarg.2				; _atIndex$
	ldc.i.4		4		; i32 0x4
	mul		
	add		
	ldarg.0				; _this$
	ldc.i.8		8		; i32 0x8
	add		
	unaligned	1		; u32 0x1
	ldind.i4	
	ldarg.2				; _atIndex$
	sub		
	ldc.i.4		4		; u32 0x4
	mul		
	call		?memcpy@@$$J0YAPAXPAXPBXI@Z
	brtrue.s	$L5497

; 252  : 	{
; 253  : 		delete newObjects;

	ldloc.0				; _newObjects$
	call		??3@$$FYAXPAX@Z

; 254  : 		fItemCount -= newItems->fItemCount;

	ldarg.0				; _this$
	ldc.i.8		8		; i32 0x8
	add		
	ldarg.0				; _this$
	ldc.i.8		8		; i32 0x8
	add		
	unaligned	1		; u32 0x1
	ldind.i4	
	ldarg.1				; _newItems$
	ldc.i.8		8		; i32 0x8
	add		
	unaligned	1		; u32 0x1
	ldind.i4	
	sub		
	unaligned	1		; u32 0x1
	stind.i4	

; 255  : 		return false;

	ldc.i.0		0		; u8 0x0
	br.s		$L5958
$L5497:

; 256  : 	}
; 257  : 
; 258  : 	if(memcpy(fObjects + atIndex, newObjects,  (fItemCount - atIndex + newItems->fItemCount) * sizeof(void*)) == NULL)

	ldarg.0				; _this$
	ldc.i.4		4		; i32 0x4
	add		
	unaligned	1		; u32 0x1
	ldind.i4	
	ldarg.2				; _atIndex$
	ldc.i.4		4		; i32 0x4
	mul		
	add		
	ldloc.0				; _newObjects$
	ldarg.0				; _this$
	ldc.i.8		8		; i32 0x8
	add		
	unaligned	1		; u32 0x1
	ldind.i4	
	ldarg.2				; _atIndex$
	sub		
	ldarg.1				; _newItems$
	ldc.i.8		8		; i32 0x8
	add		
	unaligned	1		; u32 0x1
	ldind.i4	
	add		
	ldc.i.4		4		; u32 0x4
	mul		
	call		?memcpy@@$$J0YAPAXPAXPBXI@Z
	brtrue.s	$L5500

; 259  : 	{
; 260  : 		delete newObjects;

	ldloc.0				; _newObjects$
	call		??3@$$FYAXPAX@Z

; 261  : 		fItemCount -= newItems->fItemCount;

	ldarg.0				; _this$
	ldc.i.8		8		; i32 0x8
	add		
	ldarg.0				; _this$
	ldc.i.8		8		; i32 0x8
	add		
	unaligned	1		; u32 0x1
	ldind.i4	
	ldarg.1				; _newItems$
	ldc.i.8		8		; i32 0x8
	add		
	unaligned	1		; u32 0x1
	ldind.i4	
	sub		
	unaligned	1		; u32 0x1
	stind.i4	

; 262  : 		return false;

	ldc.i.0		0		; u8 0x0
	br.s		$L5958
$L5500:

; 263  : 	}
; 264  : 
; 265  : 	delete newObjects;

	ldloc.0				; _newObjects$
	call		??3@$$FYAXPAX@Z

; 266  : 
; 267  : 	return true;

	ldc.i.1		1		; u8 0x1
	br.s		$L5958
$L5958:

; 268  : }

	ret		
 .end ?AddList@BList@@$$FQAE_NPBV1@H@Z			; BList::AddList
;	.proc.end.u1
text	ENDS
PUBLIC	?AddList@BList@@QAE_NPBV1@H@Z			; BList::AddList
PUBLIC	__mep@?AddList@BList@@$$FQAE_NPBV1@H@Z
;	COMDAT __mep@?AddList@BList@@$$FQAE_NPBV1@H@Z
data	SEGMENT
__mep@?AddList@BList@@$$FQAE_NPBV1@H@Z TOKEN 06000043
; Function compile flags: /Odt
data	ENDS
;	COMDAT ?AddList@BList@@QAE_NPBV1@H@Z
text	SEGMENT
?AddList@BList@@QAE_NPBV1@H@Z PROC NEAR			; BList::AddList, COMDAT
	jmp	DWORD PTR __mep@?AddList@BList@@$$FQAE_NPBV1@H@Z
?AddList@BList@@QAE_NPBV1@H@Z ENDP			; BList::AddList
; Function compile flags: /Odt
	.text
.global	?RemoveItem@BList@@$$FQAE_NPAX@Z		; BList::RemoveItem
?RemoveItem@BList@@$$FQAE_NPAX@Z:			; BList::RemoveItem
;	.proc.def	D:I(II)

; Function Header:
; max stack depth = 3
; function size = 30 bytes
; local varsig tk = 0x0 
; Exception Information:
; 0 handlers, each consisting of filtered handlers

;	.formal.i4 1,"_item$" SIG: ptr.void
;	.formal.i4 0,"_this$" SIG: Optional C Binding Modifier(token:0x9F6C5A).Optional C Binding Modifier(token:0x9F6C5C).ptr.valueType (token:0x9F6C5F)

;	.proc.beg

; 274  : 	if(item == NULL) return false;

	ldarg.1				; _item$
	brtrue.s	$L5507
	ldc.i.0		0		; u8 0x0
	br.s		$L5973
$L5507:

; 275  : 	return(RemoveItem(IndexOf(item)) != NULL);

	ldarg.0				; _this$
	ldarg.0				; _this$
	ldarg.1				; _item$
	call		?IndexOf@BList@@$$FQBEHPAX@Z
	call		?RemoveItem@BList@@$$FQAEPAXH@Z
	ldc.i.0		0		; u32 0x0
	bne.un.s	$L5971
	ldc.i.0		0		; i32 0x0
	br.s		$L5972
$L5971:
	ldc.i.1		1		; i32 0x1
$L5972:
	conv.u1		
	br.s		$L5973
$L5973:

; 276  : }

	ret		
 .end ?RemoveItem@BList@@$$FQAE_NPAX@Z			; BList::RemoveItem
;	.proc.end.u1
text	ENDS
PUBLIC	?RemoveItem@BList@@QAE_NPAX@Z			; BList::RemoveItem
PUBLIC	__mep@?RemoveItem@BList@@$$FQAE_NPAX@Z
;	COMDAT __mep@?RemoveItem@BList@@$$FQAE_NPAX@Z
data	SEGMENT
__mep@?RemoveItem@BList@@$$FQAE_NPAX@Z TOKEN 06000044
; Function compile flags: /Odt
data	ENDS
;	COMDAT ?RemoveItem@BList@@QAE_NPAX@Z
text	SEGMENT
?RemoveItem@BList@@QAE_NPAX@Z PROC NEAR			; BList::RemoveItem, COMDAT
	jmp	DWORD PTR __mep@?RemoveItem@BList@@$$FQAE_NPAX@Z
?RemoveItem@BList@@QAE_NPAX@Z ENDP			; BList::RemoveItem
	.bss
.local	$T5986,4
; Function compile flags: /Odt
	.text
.global	?RemoveItem@BList@@$$FQAEPAXH@Z			; BList::RemoveItem
?RemoveItem@BList@@$$FQAEPAXH@Z:			; BList::RemoveItem
;	.proc.def	D:I(II)

; Function Header:
; max stack depth = 4
; function size = 154 bytes
; local varsig tk = 0x1100000C 
; Exception Information:
; 0 handlers, each consisting of filtered handlers

;	.formal.i4 1,"_index$"
;	.formal.i4 0,"_this$" SIG: Optional C Binding Modifier(token:0x9F6C5A).Optional C Binding Modifier(token:0x9F6C5C).ptr.valueType (token:0x9F6C5F)
;	.local.i4 0,"_data$" SIG: ptr.void

;	.proc.beg

; 282  : 	if(index < 0 || index >= fItemCount) return NULL;

	ldarg.1				; _index$
	ldc.i.0		0		; i32 0x0
	blt.s		$L5513
	ldarg.1				; _index$
	ldarg.0				; _this$
	ldc.i.8		8		; i32 0x8
	add		
	unaligned	1		; u32 0x1
	ldind.i4	
	blt.s		$L5512
$L5513:
	ldc.i.0		0		; i32 0x0
	br		$L5985
$L5512:

; 283  : 
; 284  : 	void *data = fObjects[index];

	ldarg.0				; _this$
	ldc.i.4		4		; i32 0x4
	add		
	unaligned	1		; u32 0x1
	ldind.i4	
	ldarg.1				; _index$
	ldc.i.4		4		; i32 0x4
	mul		
	add		
	ldind.i4	
	stloc.0				; _data$

; 285  : 
; 286  : 	if(index < fItemCount - 1)

	ldarg.1				; _index$
	ldarg.0				; _this$
	ldc.i.8		8		; i32 0x8
	add		
	unaligned	1		; u32 0x1
	ldind.i4	
	ldc.i.1		1		; i32 0x1
	sub		
	bge.s		$L5515

; 287  : 	{
; 288  : 		if(memmove(fObjects + index, fObjects + index + 1, (fItemCount - index - 1) * sizeof(void*)) == NULL) return NULL;

	ldarg.0				; _this$
	ldc.i.4		4		; i32 0x4
	add		
	unaligned	1		; u32 0x1
	ldind.i4	
	ldarg.1				; _index$
	ldc.i.4		4		; i32 0x4
	mul		
	add		
	ldarg.0				; _this$
	ldc.i.4		4		; i32 0x4
	add		
	unaligned	1		; u32 0x1
	ldind.i4	
	ldarg.1				; _index$
	ldc.i.4		4		; i32 0x4
	mul		
	add		
	ldc.i.4		4		; i32 0x4
	add		
	ldarg.0				; _this$
	ldc.i.8		8		; i32 0x8
	add		
	unaligned	1		; u32 0x1
	ldind.i4	
	ldarg.1				; _index$
	sub		
	ldc.i.1		1		; i32 0x1
	sub		
	ldc.i.4		4		; u32 0x4
	mul		
	call		?memmove@@$$J0YAPAXPAXPBXI@Z
	brtrue.s	$L5515
	ldc.i.0		0		; i32 0x0
	br.s		$L5985
$L5515:

; 289  : 	}
; 290  : 
; 291  : 	if(!_Resize(fItemCount - 1))

	ldarg.0				; _this$
	ldarg.0				; _this$
	ldc.i.8		8		; i32 0x8
	add		
	unaligned	1		; u32 0x1
	ldind.i4	
	ldc.i.1		1		; i32 0x1
	sub		
	call		?_Resize@BList@@$$FAAE_NH@Z
	brtrue.s	$L5518

; 292  : 	{
; 293  : 		fItemCount--;

	ldarg.0				; _this$
	ldc.i.8		8		; i32 0x8
	add		
	ldarg.0				; _this$
	ldc.i.8		8		; i32 0x8
	add		
	unaligned	1		; u32 0x1
	ldind.i4	
	ldc.i.1		1		; i32 0x1
	sub		
	unaligned	1		; u32 0x1
	stind.i4	

; 294  : 		bzero(fObjects + fItemCount, sizeof(void*));

	ldarg.0				; _this$
	ldc.i.4		4		; i32 0x4
	add		
	unaligned	1		; u32 0x1
	ldind.i4	
	ldarg.0				; _this$
	ldc.i.8		8		; i32 0x8
	add		
	unaligned	1		; u32 0x1
	ldind.i4	
	ldc.i.4		4		; i32 0x4
	mul		
	add		
	ldc.i.0		0		; i32 0x0
	ldc.i.4		4		; u32 0x4
	call		?memset@@$$J0YAPAXPAXHI@Z
	pop		
$L5518:

; 295  : 	}
; 296  : 
; 297  : 	return data;

	ldloc.0				; _data$
	br.s		$L5985
$L5985:

; 298  : }

	ret		
 .end ?RemoveItem@BList@@$$FQAEPAXH@Z			; BList::RemoveItem
;	.proc.end.i4
text	ENDS
PUBLIC	?RemoveItem@BList@@QAEPAXH@Z			; BList::RemoveItem
PUBLIC	__mep@?RemoveItem@BList@@$$FQAEPAXH@Z
;	COMDAT __mep@?RemoveItem@BList@@$$FQAEPAXH@Z
data	SEGMENT
__mep@?RemoveItem@BList@@$$FQAEPAXH@Z TOKEN 06000045
; Function compile flags: /Odt
data	ENDS
;	COMDAT ?RemoveItem@BList@@QAEPAXH@Z
text	SEGMENT
?RemoveItem@BList@@QAEPAXH@Z PROC NEAR			; BList::RemoveItem, COMDAT
	jmp	DWORD PTR __mep@?RemoveItem@BList@@$$FQAEPAXH@Z
?RemoveItem@BList@@QAEPAXH@Z ENDP			; BList::RemoveItem
; Function compile flags: /Odt
	.text
.global	?RemoveItems@BList@@$$FQAE_NHH@Z		; BList::RemoveItems
?RemoveItems@BList@@$$FQAE_NHH@Z:			; BList::RemoveItems
;	.proc.def	D:I(III)

; Function Header:
; max stack depth = 5
; function size = 224 bytes
; local varsig tk = 0x0 
; Exception Information:
; 0 handlers, each consisting of filtered handlers

;	.formal.i4 1,"_index$"
;	.formal.i4 2,"_count$"
;	.formal.i4 0,"_this$" SIG: Optional C Binding Modifier(token:0x9F6C5A).Optional C Binding Modifier(token:0x9F6C5C).ptr.valueType (token:0x9F6C5F)

;	.proc.beg

; 304  : 	if(index < 0 || index >= fItemCount) return false;

	ldarg.1				; _index$
	ldc.i.0		0		; i32 0x0
	blt.s		$L5526
	ldarg.1				; _index$
	ldarg.0				; _this$
	ldc.i.8		8		; i32 0x8
	add		
	unaligned	1		; u32 0x1
	ldind.i4	
	blt.s		$L5525
$L5526:
	ldc.i.0		0		; u8 0x0
	br		$L6000
$L5525:

; 305  : 
; 306  : 	if(count < 0) count = fItemCount - index;

	ldarg.2				; _count$
	ldc.i.0		0		; i32 0x0
	bge.s		$L5527
	ldarg.0				; _this$
	ldc.i.8		8		; i32 0x8
	add		
	unaligned	1		; u32 0x1
	ldind.i4	
	ldarg.1				; _index$
	sub		
	starg.s		2		; _count$

; 307  : 	else count = min_c(fItemCount - index, count);

	br.s		$L5528
$L5527:
	ldarg.0				; _this$
	ldc.i.8		8		; i32 0x8
	add		
	unaligned	1		; u32 0x1
	ldind.i4	
	ldarg.1				; _index$
	sub		
	ldarg.2				; _count$
	ble.s		$L5990
	ldarg.2				; _count$
	br.s		$L5991
$L5990:
	ldarg.0				; _this$
	ldc.i.8		8		; i32 0x8
	add		
	unaligned	1		; u32 0x1
	ldind.i4	
	ldarg.1				; _index$
	sub		
$L5991:
	starg.s		2		; _count$
$L5528:

; 308  : 
; 309  : 	if(count == 0) return true;

	ldarg.2				; _count$
	brtrue.s	$L5529
	ldc.i.1		1		; u8 0x1
	br		$L6000
$L5529:

; 310  : 
; 311  : 	if(index < (fItemCount - 1) && count != (fItemCount - index))

	ldarg.1				; _index$
	ldarg.0				; _this$
	ldc.i.8		8		; i32 0x8
	add		
	unaligned	1		; u32 0x1
	ldind.i4	
	ldc.i.1		1		; i32 0x1
	sub		
	bge.s		$L5530
	ldarg.2				; _count$
	ldarg.0				; _this$
	ldc.i.8		8		; i32 0x8
	add		
	unaligned	1		; u32 0x1
	ldind.i4	
	ldarg.1				; _index$
	sub		
	beq.s		$L5530

; 312  : 	{
; 313  : 		if(memmove(fObjects + index, fObjects + index + count, (fItemCount - index - count) * sizeof(void*)) == NULL) return false;

	ldarg.0				; _this$
	ldc.i.4		4		; i32 0x4
	add		
	unaligned	1		; u32 0x1
	ldind.i4	
	ldarg.1				; _index$
	ldc.i.4		4		; i32 0x4
	mul		
	add		
	ldarg.0				; _this$
	ldc.i.4		4		; i32 0x4
	add		
	unaligned	1		; u32 0x1
	ldind.i4	
	ldarg.1				; _index$
	ldc.i.4		4		; i32 0x4
	mul		
	add		
	ldarg.2				; _count$
	ldc.i.4		4		; i32 0x4
	mul		
	add		
	ldarg.0				; _this$
	ldc.i.8		8		; i32 0x8
	add		
	unaligned	1		; u32 0x1
	ldind.i4	
	ldarg.1				; _index$
	sub		
	ldarg.2				; _count$
	sub		
	ldc.i.4		4		; u32 0x4
	mul		
	call		?memmove@@$$J0YAPAXPAXPBXI@Z
	brtrue.s	$L5530
	ldc.i.0		0		; u8 0x0
	br.s		$L6000
$L5530:

; 314  : 	}
; 315  : 
; 316  : 	if(!_Resize(fItemCount - count))

	ldarg.0				; _this$
	ldarg.0				; _this$
	ldc.i.8		8		; i32 0x8
	add		
	unaligned	1		; u32 0x1
	ldind.i4	
	ldarg.2				; _count$
	sub		
	call		?_Resize@BList@@$$FAAE_NH@Z
	brtrue.s	$L5533

; 317  : 	{
; 318  : 		fItemCount -= count;

	ldarg.0				; _this$
	ldc.i.8		8		; i32 0x8
	add		
	ldarg.0				; _this$
	ldc.i.8		8		; i32 0x8
	add		
	unaligned	1		; u32 0x1
	ldind.i4	
	ldarg.2				; _count$
	sub		
	unaligned	1		; u32 0x1
	stind.i4	

; 319  : 		bzero(fObjects + fItemCount, (fItemReal - fItemCount) * sizeof(void*));

	ldarg.0				; _this$
	ldc.i.4		4		; i32 0x4
	add		
	unaligned	1		; u32 0x1
	ldind.i4	
	ldarg.0				; _this$
	ldc.i.8		8		; i32 0x8
	add		
	unaligned	1		; u32 0x1
	ldind.i4	
	ldc.i.4		4		; i32 0x4
	mul		
	add		
	ldc.i.0		0		; i32 0x0
	ldarg.0				; _this$
	ldc.i4.s	12		; i32 0xc
	add		
	unaligned	1		; u32 0x1
	ldind.i4	
	ldarg.0				; _this$
	ldc.i.8		8		; i32 0x8
	add		
	unaligned	1		; u32 0x1
	ldind.i4	
	sub		
	ldc.i.4		4		; u32 0x4
	mul		
	call		?memset@@$$J0YAPAXPAXHI@Z
	pop		
$L5533:

; 320  : 	}
; 321  : 
; 322  : 	return true;

	ldc.i.1		1		; u8 0x1
	br.s		$L6000
$L6000:

; 323  : }

	ret		
 .end ?RemoveItems@BList@@$$FQAE_NHH@Z			; BList::RemoveItems
;	.proc.end.u1
text	ENDS
PUBLIC	?RemoveItems@BList@@QAE_NHH@Z			; BList::RemoveItems
PUBLIC	__mep@?RemoveItems@BList@@$$FQAE_NHH@Z
;	COMDAT __mep@?RemoveItems@BList@@$$FQAE_NHH@Z
data	SEGMENT
__mep@?RemoveItems@BList@@$$FQAE_NHH@Z TOKEN 06000046
; Function compile flags: /Odt
data	ENDS
;	COMDAT ?RemoveItems@BList@@QAE_NHH@Z
text	SEGMENT
?RemoveItems@BList@@QAE_NHH@Z PROC NEAR			; BList::RemoveItems, COMDAT
	jmp	DWORD PTR __mep@?RemoveItems@BList@@$$FQAE_NHH@Z
?RemoveItems@BList@@QAE_NHH@Z ENDP			; BList::RemoveItems
; Function compile flags: /Odt
	.text
.global	?ReplaceItem@BList@@$$FQAE_NHPAXPAPAX@Z		; BList::ReplaceItem
?ReplaceItem@BList@@$$FQAE_NHPAXPAPAX@Z:		; BList::ReplaceItem
;	.proc.def	D:I(IIII)

; Function Header:
; max stack depth = 4
; function size = 51 bytes
; local varsig tk = 0x0 
; Exception Information:
; 0 handlers, each consisting of filtered handlers

;	.formal.i4 1,"_index$"
;	.formal.i4 2,"_newItem$" SIG: ptr.void
;	.formal.i4 3,"_oldItem$" SIG: ptr.ptr.void
;	.formal.i4 0,"_this$" SIG: Optional C Binding Modifier(token:0x9F6C5A).Optional C Binding Modifier(token:0x9F6C5C).ptr.valueType (token:0x9F6C5F)

;	.proc.beg

; 329  : 	if(index < 0 || index >= fItemCount) return false;

	ldarg.1				; _index$
	ldc.i.0		0		; i32 0x0
	blt.s		$L5542
	ldarg.1				; _index$
	ldarg.0				; _this$
	ldc.i.8		8		; i32 0x8
	add		
	unaligned	1		; u32 0x1
	ldind.i4	
	blt.s		$L5541
$L5542:
	ldc.i.0		0		; u8 0x0
	br.s		$L6012
$L5541:

; 330  : 
; 331  : 	if(oldItem) *oldItem = fObjects[index];

	ldarg.3				; _oldItem$
	brfalse.s	$L5543
	ldarg.3				; _oldItem$
	ldarg.0				; _this$
	ldc.i.4		4		; i32 0x4
	add		
	unaligned	1		; u32 0x1
	ldind.i4	
	ldarg.1				; _index$
	ldc.i.4		4		; i32 0x4
	mul		
	add		
	ldind.i4	
	stind.i4	
$L5543:

; 332  : 	fObjects[index] = newItem;

	ldarg.0				; _this$
	ldc.i.4		4		; i32 0x4
	add		
	unaligned	1		; u32 0x1
	ldind.i4	
	ldarg.1				; _index$
	ldc.i.4		4		; i32 0x4
	mul		
	add		
	ldarg.2				; _newItem$
	stind.i4	

; 333  : 
; 334  : 	return true;

	ldc.i.1		1		; u8 0x1
	br.s		$L6012
$L6012:

; 335  : }

	ret		
 .end ?ReplaceItem@BList@@$$FQAE_NHPAXPAPAX@Z		; BList::ReplaceItem
;	.proc.end.u1
text	ENDS
PUBLIC	?ReplaceItem@BList@@QAE_NHPAXPAPAX@Z		; BList::ReplaceItem
PUBLIC	__mep@?ReplaceItem@BList@@$$FQAE_NHPAXPAPAX@Z
;	COMDAT __mep@?ReplaceItem@BList@@$$FQAE_NHPAXPAPAX@Z
data	SEGMENT
__mep@?ReplaceItem@BList@@$$FQAE_NHPAXPAPAX@Z TOKEN 06000047
; Function compile flags: /Odt
data	ENDS
;	COMDAT ?ReplaceItem@BList@@QAE_NHPAXPAPAX@Z
text	SEGMENT
?ReplaceItem@BList@@QAE_NHPAXPAPAX@Z PROC NEAR		; BList::ReplaceItem, COMDAT
	jmp	DWORD PTR __mep@?ReplaceItem@BList@@$$FQAE_NHPAXPAPAX@Z
?ReplaceItem@BList@@QAE_NHPAXPAPAX@Z ENDP		; BList::ReplaceItem
; Function compile flags: /Odt
	.text
.global	?MakeEmpty@BList@@$$FQAEXXZ			; BList::MakeEmpty
?MakeEmpty@BList@@$$FQAEXXZ:				; BList::MakeEmpty
;	.proc.def	D:V(I)

; Function Header:
; max stack depth = 2
; function size = 9 bytes
; local varsig tk = 0x0 
; Exception Information:
; 0 handlers, each consisting of filtered handlers

;	.formal.i4 0,"_this$" SIG: Optional C Binding Modifier(token:0x9F6C5A).Optional C Binding Modifier(token:0x9F6C5C).ptr.valueType (token:0x9F6C5F)

;	.proc.beg

; 341  : 	_Resize(0);

	ldarg.0				; _this$
	ldc.i.0		0		; i32 0x0
	call		?_Resize@BList@@$$FAAE_NH@Z
	pop		
$L6024:

; 342  : }

	ret		
 .end ?MakeEmpty@BList@@$$FQAEXXZ			; BList::MakeEmpty
;	.proc.end.void
text	ENDS
PUBLIC	?MakeEmpty@BList@@QAEXXZ			; BList::MakeEmpty
PUBLIC	__mep@?MakeEmpty@BList@@$$FQAEXXZ
;	COMDAT __mep@?MakeEmpty@BList@@$$FQAEXXZ
data	SEGMENT
__mep@?MakeEmpty@BList@@$$FQAEXXZ TOKEN 06000048
; Function compile flags: /Odt
data	ENDS
;	COMDAT ?MakeEmpty@BList@@QAEXXZ
text	SEGMENT
?MakeEmpty@BList@@QAEXXZ PROC NEAR			; BList::MakeEmpty, COMDAT
	jmp	DWORD PTR __mep@?MakeEmpty@BList@@$$FQAEXXZ
?MakeEmpty@BList@@QAEXXZ ENDP				; BList::MakeEmpty
	.bss
.local	$T6037,4
; Function compile flags: /Odt
	.text
.global	?SwapItems@BList@@$$FQAE_NHH@Z			; BList::SwapItems
?SwapItems@BList@@$$FQAE_NHH@Z:				; BList::SwapItems
;	.proc.def	D:I(III)

; Function Header:
; max stack depth = 4
; function size = 85 bytes
; local varsig tk = 0x1100000C 
; Exception Information:
; 0 handlers, each consisting of filtered handlers

;	.formal.i4 1,"_indexA$"
;	.formal.i4 2,"_indexB$"
;	.formal.i4 0,"_this$" SIG: Optional C Binding Modifier(token:0x9F6C5A).Optional C Binding Modifier(token:0x9F6C5C).ptr.valueType (token:0x9F6C5F)
;	.local.i4 0,"_dataA$" SIG: ptr.void

;	.proc.beg

; 348  : 	if(indexA < 0 || indexA >= fItemCount || indexB < 0 || indexB >= fItemCount) return false;

	ldarg.1				; _indexA$
	ldc.i.0		0		; i32 0x0
	blt.s		$L5553
	ldarg.1				; _indexA$
	ldarg.0				; _this$
	ldc.i.8		8		; i32 0x8
	add		
	unaligned	1		; u32 0x1
	ldind.i4	
	bge.s		$L5553
	ldarg.2				; _indexB$
	ldc.i.0		0		; i32 0x0
	blt.s		$L5553
	ldarg.2				; _indexB$
	ldarg.0				; _this$
	ldc.i.8		8		; i32 0x8
	add		
	unaligned	1		; u32 0x1
	ldind.i4	
	blt.s		$L5552
$L5553:
	ldc.i.0		0		; u8 0x0
	br.s		$L6036
$L5552:

; 349  : 
; 350  : 	void *dataA = fObjects[indexA];

	ldarg.0				; _this$
	ldc.i.4		4		; i32 0x4
	add		
	unaligned	1		; u32 0x1
	ldind.i4	
	ldarg.1				; _indexA$
	ldc.i.4		4		; i32 0x4
	mul		
	add		
	ldind.i4	
	stloc.0				; _dataA$

; 351  : 
; 352  : 	fObjects[indexA] = fObjects[indexB];

	ldarg.0				; _this$
	ldc.i.4		4		; i32 0x4
	add		
	unaligned	1		; u32 0x1
	ldind.i4	
	ldarg.1				; _indexA$
	ldc.i.4		4		; i32 0x4
	mul		
	add		
	ldarg.0				; _this$
	ldc.i.4		4		; i32 0x4
	add		
	unaligned	1		; u32 0x1
	ldind.i4	
	ldarg.2				; _indexB$
	ldc.i.4		4		; i32 0x4
	mul		
	add		
	ldind.i4	
	stind.i4	

; 353  : 	fObjects[indexB] = dataA;

	ldarg.0				; _this$
	ldc.i.4		4		; i32 0x4
	add		
	unaligned	1		; u32 0x1
	ldind.i4	
	ldarg.2				; _indexB$
	ldc.i.4		4		; i32 0x4
	mul		
	add		
	ldloc.0				; _dataA$
	stind.i4	

; 354  : 
; 355  : 	return true;

	ldc.i.1		1		; u8 0x1
	br.s		$L6036
$L6036:

; 356  : }

	ret		
 .end ?SwapItems@BList@@$$FQAE_NHH@Z			; BList::SwapItems
;	.proc.end.u1
text	ENDS
PUBLIC	?SwapItems@BList@@QAE_NHH@Z			; BList::SwapItems
PUBLIC	__mep@?SwapItems@BList@@$$FQAE_NHH@Z
;	COMDAT __mep@?SwapItems@BList@@$$FQAE_NHH@Z
data	SEGMENT
__mep@?SwapItems@BList@@$$FQAE_NHH@Z TOKEN 06000049
; Function compile flags: /Odt
data	ENDS
;	COMDAT ?SwapItems@BList@@QAE_NHH@Z
text	SEGMENT
?SwapItems@BList@@QAE_NHH@Z PROC NEAR			; BList::SwapItems, COMDAT
	jmp	DWORD PTR __mep@?SwapItems@BList@@$$FQAE_NHH@Z
?SwapItems@BList@@QAE_NHH@Z ENDP			; BList::SwapItems
	.bss
.local	$T6050,4
; Function compile flags: /Odt
	.text
.global	?MoveItem@BList@@$$FQAE_NHH@Z			; BList::MoveItem
?MoveItem@BList@@$$FQAE_NHH@Z:				; BList::MoveItem
;	.proc.def	D:I(III)

; Function Header:
; max stack depth = 4
; function size = 155 bytes
; local varsig tk = 0x1100000C 
; Exception Information:
; 0 handlers, each consisting of filtered handlers

;	.formal.i4 1,"_fromIndex$"
;	.formal.i4 2,"_toIndex$"
;	.formal.i4 0,"_this$" SIG: Optional C Binding Modifier(token:0x9F6C5A).Optional C Binding Modifier(token:0x9F6C5C).ptr.valueType (token:0x9F6C5F)
;	.local.i4 0,"_fromData$" SIG: ptr.void

;	.proc.beg

; 362  : 	if(fromIndex < 0 || fromIndex >= fItemCount || toIndex < 0 || toIndex >= fItemCount) return false;

	ldarg.1				; _fromIndex$
	ldc.i.0		0		; i32 0x0
	blt.s		$L5561
	ldarg.1				; _fromIndex$
	ldarg.0				; _this$
	ldc.i.8		8		; i32 0x8
	add		
	unaligned	1		; u32 0x1
	ldind.i4	
	bge.s		$L5561
	ldarg.2				; _toIndex$
	ldc.i.0		0		; i32 0x0
	blt.s		$L5561
	ldarg.2				; _toIndex$
	ldarg.0				; _this$
	ldc.i.8		8		; i32 0x8
	add		
	unaligned	1		; u32 0x1
	ldind.i4	
	blt.s		$L5560
$L5561:
	ldc.i.0		0		; u8 0x0
	br		$L6049
$L5560:

; 363  : 	if(fromIndex == toIndex) return true;

	ldarg.1				; _fromIndex$
	ldarg.2				; _toIndex$
	bne.un.s	$L5562
	ldc.i.1		1		; u8 0x1
	br.s		$L6049
$L5562:

; 364  : 
; 365  : 	void *fromData = fObjects[fromIndex];

	ldarg.0				; _this$
	ldc.i.4		4		; i32 0x4
	add		
	unaligned	1		; u32 0x1
	ldind.i4	
	ldarg.1				; _fromIndex$
	ldc.i.4		4		; i32 0x4
	mul		
	add		
	ldind.i4	
	stloc.0				; _fromData$

; 366  : 
; 367  : 	if(toIndex > fromIndex)

	ldarg.2				; _toIndex$
	ldarg.1				; _fromIndex$
	ble.s		$L5564

; 368  : 	{
; 369  : 		if(memmove(fObjects + fromIndex, fObjects + fromIndex + 1, (toIndex - fromIndex) * sizeof(void*)) == NULL) return false;

	ldarg.0				; _this$
	ldc.i.4		4		; i32 0x4
	add		
	unaligned	1		; u32 0x1
	ldind.i4	
	ldarg.1				; _fromIndex$
	ldc.i.4		4		; i32 0x4
	mul		
	add		
	ldarg.0				; _this$
	ldc.i.4		4		; i32 0x4
	add		
	unaligned	1		; u32 0x1
	ldind.i4	
	ldarg.1				; _fromIndex$
	ldc.i.4		4		; i32 0x4
	mul		
	add		
	ldc.i.4		4		; i32 0x4
	add		
	ldarg.2				; _toIndex$
	ldarg.1				; _fromIndex$
	sub		
	ldc.i.4		4		; u32 0x4
	mul		
	call		?memmove@@$$J0YAPAXPAXPBXI@Z
	brtrue.s	$L5566
	ldc.i.0		0		; u8 0x0
	br.s		$L6049
$L5566:

; 370  : 	}
; 371  : 	else

	br.s		$L5567
$L5564:

; 372  : 	{
; 373  : 		if(memmove(fObjects + toIndex + 1, fObjects + toIndex, (fromIndex - toIndex) * sizeof(void*)) == NULL) return false;

	ldarg.0				; _this$
	ldc.i.4		4		; i32 0x4
	add		
	unaligned	1		; u32 0x1
	ldind.i4	
	ldarg.2				; _toIndex$
	ldc.i.4		4		; i32 0x4
	mul		
	add		
	ldc.i.4		4		; i32 0x4
	add		
	ldarg.0				; _this$
	ldc.i.4		4		; i32 0x4
	add		
	unaligned	1		; u32 0x1
	ldind.i4	
	ldarg.2				; _toIndex$
	ldc.i.4		4		; i32 0x4
	mul		
	add		
	ldarg.1				; _fromIndex$
	ldarg.2				; _toIndex$
	sub		
	ldc.i.4		4		; u32 0x4
	mul		
	call		?memmove@@$$J0YAPAXPAXPBXI@Z
	brtrue.s	$L5567
	ldc.i.0		0		; u8 0x0
	br.s		$L6049
$L5567:

; 374  : 	}
; 375  : 
; 376  : 	fObjects[toIndex] = fromData;

	ldarg.0				; _this$
	ldc.i.4		4		; i32 0x4
	add		
	unaligned	1		; u32 0x1
	ldind.i4	
	ldarg.2				; _toIndex$
	ldc.i.4		4		; i32 0x4
	mul		
	add		
	ldloc.0				; _fromData$
	stind.i4	

; 377  : 
; 378  :         return true;

	ldc.i.1		1		; u8 0x1
	br.s		$L6049
$L6049:

; 379  : }

	ret		
 .end ?MoveItem@BList@@$$FQAE_NHH@Z			; BList::MoveItem
;	.proc.end.u1
text	ENDS
PUBLIC	?MoveItem@BList@@QAE_NHH@Z			; BList::MoveItem
PUBLIC	__mep@?MoveItem@BList@@$$FQAE_NHH@Z
;	COMDAT __mep@?MoveItem@BList@@$$FQAE_NHH@Z
data	SEGMENT
__mep@?MoveItem@BList@@$$FQAE_NHH@Z TOKEN 0600004A
; Function compile flags: /Odt
data	ENDS
;	COMDAT ?MoveItem@BList@@QAE_NHH@Z
text	SEGMENT
?MoveItem@BList@@QAE_NHH@Z PROC NEAR			; BList::MoveItem, COMDAT
	jmp	DWORD PTR __mep@?MoveItem@BList@@$$FQAE_NHH@Z
?MoveItem@BList@@QAE_NHH@Z ENDP				; BList::MoveItem
.global	
	.bss
.local	,4
; Function compile flags: /Odt
	.text
.global	?SortItems@BList@@$$FQAEXP6AHPBX0@Z@Z		; BList::SortItems
?SortItems@BList@@$$FQAEXP6AHPBX0@Z@Z:			; BList::SortItems
;	.proc.def	D:V(II)

; Function Header:
; max stack depth = 4
; function size = 35 bytes
; local varsig tk = 0x0 
; Exception Information:
; 0 handlers, each consisting of filtered handlers

;	.formal.i4 1,"_cmp$" SIG: fnptr
;	.formal.i4 0,"_this$" SIG: Optional C Binding Modifier(token:0x9F6C5A).Optional C Binding Modifier(token:0x9F6C5C).ptr.valueType (token:0x9F6C5F)

;	.proc.beg

; 385  : 	if(cmp && fItemCount > 1) qsort((void*)fObjects, fItemCount, sizeof(void*), cmp);

	ldarg.1				; _cmp$
	brfalse.s	$L5575
	ldarg.0				; _this$
	ldc.i.8		8		; i32 0x8
	add		
	unaligned	1		; u32 0x1
	ldind.i4	
	ldc.i.1		1		; i32 0x1
	ble.s		$L5575
	ldarg.0				; _this$
	ldc.i.4		4		; i32 0x4
	add		
	unaligned	1		; u32 0x1
	ldind.i4	
	ldarg.0				; _this$
	ldc.i.8		8		; i32 0x8
	add		
	unaligned	1		; u32 0x1
	ldind.i4	
	ldc.i.4		4		; u32 0x4
	ldarg.1				; _cmp$
	call		?qsort@@$$J0YAXPAXIIP6AHPBX1@Z@Z
$L5575:
$L6062:

; 386  : }

	ret		
 .end ?SortItems@BList@@$$FQAEXP6AHPBX0@Z@Z		; BList::SortItems
;	.proc.end.void
text	ENDS
PUBLIC	?SortItems@BList@@QAEXP6AHPBX0@Z@Z		; BList::SortItems
PUBLIC	__mep@?SortItems@BList@@$$FQAEXP6AHPBX0@Z@Z
;	COMDAT __mep@?SortItems@BList@@$$FQAEXP6AHPBX0@Z@Z
data	SEGMENT
__mep@?SortItems@BList@@$$FQAEXP6AHPBX0@Z@Z TOKEN 0600004B
; Function compile flags: /Odt
data	ENDS
;	COMDAT ?SortItems@BList@@QAEXP6AHPBX0@Z@Z
text	SEGMENT
?SortItems@BList@@QAEXP6AHPBX0@Z@Z PROC NEAR		; BList::SortItems, COMDAT
	jmp	DWORD PTR __mep@?SortItems@BList@@$$FQAEXP6AHPBX0@Z@Z
?SortItems@BList@@QAEXP6AHPBX0@Z@Z ENDP			; BList::SortItems
.global	
	.bss
.local	,4
; Function compile flags: /Odt
	.text
.global	?ItemAt@BList@@$$FQBEPAXH@Z			; BList::ItemAt
?ItemAt@BList@@$$FQBEPAXH@Z:				; BList::ItemAt
;	.proc.def	D:I(II)

; Function Header:
; max stack depth = 3
; function size = 32 bytes
; local varsig tk = 0x0 
; Exception Information:
; 0 handlers, each consisting of filtered handlers

;	.formal.i4 1,"_index$"
;	.formal.i4 0,"_this$" SIG: Optional C Binding Modifier(token:0xA242B6).Optional C Binding Modifier(token:0xA242B8).ptr.Optional C Binding Modifier(token:0xA242BB).valueType (token:0xA242BD)

;	.proc.beg

; 392  : 	if(index < 0 || index >= fItemCount) return NULL;

	ldarg.1				; _index$
	ldc.i.0		0		; i32 0x0
	blt.s		$L5585
	ldarg.1				; _index$
	ldarg.0				; _this$
	ldc.i.8		8		; i32 0x8
	add		
	unaligned	1		; u32 0x1
	ldind.i4	
	blt.s		$L5584
$L5585:
	ldc.i.0		0		; i32 0x0
	br.s		$L6075
$L5584:

; 393  : 
; 394  : 	return fObjects[index];

	ldarg.0				; _this$
	ldc.i.4		4		; i32 0x4
	add		
	unaligned	1		; u32 0x1
	ldind.i4	
	ldarg.1				; _index$
	ldc.i.4		4		; i32 0x4
	mul		
	add		
	ldind.i4	
	br.s		$L6075
$L6075:

; 395  : }

	ret		
 .end ?ItemAt@BList@@$$FQBEPAXH@Z			; BList::ItemAt
;	.proc.end.i4
text	ENDS
PUBLIC	?ItemAt@BList@@QBEPAXH@Z			; BList::ItemAt
PUBLIC	__mep@?ItemAt@BList@@$$FQBEPAXH@Z
;	COMDAT __mep@?ItemAt@BList@@$$FQBEPAXH@Z
data	SEGMENT
__mep@?ItemAt@BList@@$$FQBEPAXH@Z TOKEN 0600004C
; Function compile flags: /Odt
data	ENDS
;	COMDAT ?ItemAt@BList@@QBEPAXH@Z
text	SEGMENT
?ItemAt@BList@@QBEPAXH@Z PROC NEAR			; BList::ItemAt, COMDAT
	jmp	DWORD PTR __mep@?ItemAt@BList@@$$FQBEPAXH@Z
?ItemAt@BList@@QBEPAXH@Z ENDP				; BList::ItemAt
; Function compile flags: /Odt
	.text
.global	?FirstItem@BList@@$$FQBEPAXXZ			; BList::FirstItem
?FirstItem@BList@@$$FQBEPAXXZ:				; BList::FirstItem
;	.proc.def	D:I(I)

; Function Header:
; max stack depth = 2
; function size = 24 bytes
; local varsig tk = 0x0 
; Exception Information:
; 0 handlers, each consisting of filtered handlers

;	.formal.i4 0,"_this$" SIG: Optional C Binding Modifier(token:0xA242B6).Optional C Binding Modifier(token:0xA242B8).ptr.Optional C Binding Modifier(token:0xA242BB).valueType (token:0xA242BD)

;	.proc.beg

; 401  : 	if(fItemCount > 0) return fObjects[0];

	ldarg.0				; _this$
	ldc.i.8		8		; i32 0x8
	add		
	unaligned	1		; u32 0x1
	ldind.i4	
	ldc.i.0		0		; i32 0x0
	ble.s		$L5590
	ldarg.0				; _this$
	ldc.i.4		4		; i32 0x4
	add		
	unaligned	1		; u32 0x1
	ldind.i4	
	ldind.i4	
	br.s		$L6088
$L5590:

; 402  : 	return NULL;

	ldc.i.0		0		; i32 0x0
	br.s		$L6088
$L6088:

; 403  : }

	ret		
 .end ?FirstItem@BList@@$$FQBEPAXXZ			; BList::FirstItem
;	.proc.end.i4
text	ENDS
PUBLIC	?FirstItem@BList@@QBEPAXXZ			; BList::FirstItem
PUBLIC	__mep@?FirstItem@BList@@$$FQBEPAXXZ
;	COMDAT __mep@?FirstItem@BList@@$$FQBEPAXXZ
data	SEGMENT
__mep@?FirstItem@BList@@$$FQBEPAXXZ TOKEN 0600004D
; Function compile flags: /Odt
data	ENDS
;	COMDAT ?FirstItem@BList@@QBEPAXXZ
text	SEGMENT
?FirstItem@BList@@QBEPAXXZ PROC NEAR			; BList::FirstItem, COMDAT
	jmp	DWORD PTR __mep@?FirstItem@BList@@$$FQBEPAXXZ
?FirstItem@BList@@QBEPAXXZ ENDP				; BList::FirstItem
; Function compile flags: /Odt
	.text
.global	?LastItem@BList@@$$FQBEPAXXZ			; BList::LastItem
?LastItem@BList@@$$FQBEPAXXZ:				; BList::LastItem
;	.proc.def	D:I(I)

; Function Header:
; max stack depth = 3
; function size = 36 bytes
; local varsig tk = 0x0 
; Exception Information:
; 0 handlers, each consisting of filtered handlers

;	.formal.i4 0,"_this$" SIG: Optional C Binding Modifier(token:0xA242B6).Optional C Binding Modifier(token:0xA242B8).ptr.Optional C Binding Modifier(token:0xA242BB).valueType (token:0xA242BD)

;	.proc.beg

; 409  : 	if(fItemCount > 0) return fObjects[fItemCount - 1];

	ldarg.0				; _this$
	ldc.i.8		8		; i32 0x8
	add		
	unaligned	1		; u32 0x1
	ldind.i4	
	ldc.i.0		0		; i32 0x0
	ble.s		$L5594
	ldarg.0				; _this$
	ldc.i.4		4		; i32 0x4
	add		
	unaligned	1		; u32 0x1
	ldind.i4	
	ldarg.0				; _this$
	ldc.i.8		8		; i32 0x8
	add		
	unaligned	1		; u32 0x1
	ldind.i4	
	ldc.i.1		1		; i32 0x1
	sub		
	ldc.i.4		4		; i32 0x4
	mul		
	add		
	ldind.i4	
	br.s		$L6100
$L5594:

; 410  : 	return NULL;

	ldc.i.0		0		; i32 0x0
	br.s		$L6100
$L6100:

; 411  : }

	ret		
 .end ?LastItem@BList@@$$FQBEPAXXZ			; BList::LastItem
;	.proc.end.i4
text	ENDS
PUBLIC	?LastItem@BList@@QBEPAXXZ			; BList::LastItem
PUBLIC	__mep@?LastItem@BList@@$$FQBEPAXXZ
;	COMDAT __mep@?LastItem@BList@@$$FQBEPAXXZ
data	SEGMENT
__mep@?LastItem@BList@@$$FQBEPAXXZ TOKEN 0600004E
; Function compile flags: /Odt
data	ENDS
;	COMDAT ?LastItem@BList@@QBEPAXXZ
text	SEGMENT
?LastItem@BList@@QBEPAXXZ PROC NEAR			; BList::LastItem, COMDAT
	jmp	DWORD PTR __mep@?LastItem@BList@@$$FQBEPAXXZ
?LastItem@BList@@QBEPAXXZ ENDP				; BList::LastItem
; Function compile flags: /Odt
	.text
.global	?HasItem@BList@@$$FQBE_NPAX@Z			; BList::HasItem
?HasItem@BList@@$$FQBE_NPAX@Z:				; BList::HasItem
;	.proc.def	D:I(II)

; Function Header:
; max stack depth = 2
; function size = 24 bytes
; local varsig tk = 0x0 
; Exception Information:
; 0 handlers, each consisting of filtered handlers

;	.formal.i4 1,"_item$" SIG: ptr.void
;	.formal.i4 0,"_this$" SIG: Optional C Binding Modifier(token:0xA242B6).Optional C Binding Modifier(token:0xA242B8).ptr.Optional C Binding Modifier(token:0xA242BB).valueType (token:0xA242BD)

;	.proc.beg

; 417  : 	if(item == NULL) return false;

	ldarg.1				; _item$
	brtrue.s	$L5599
	ldc.i.0		0		; u8 0x0
	br.s		$L6114
$L5599:

; 418  : 	return(IndexOf(item) >= 0);

	ldarg.0				; _this$
	ldarg.1				; _item$
	call		?IndexOf@BList@@$$FQBEHPAX@Z
	ldc.i.0		0		; i32 0x0
	bge.s		$L6112
	ldc.i.0		0		; i32 0x0
	br.s		$L6113
$L6112:
	ldc.i.1		1		; i32 0x1
$L6113:
	conv.u1		
	br.s		$L6114
$L6114:

; 419  : }

	ret		
 .end ?HasItem@BList@@$$FQBE_NPAX@Z			; BList::HasItem
;	.proc.end.u1
text	ENDS
PUBLIC	?HasItem@BList@@QBE_NPAX@Z			; BList::HasItem
PUBLIC	__mep@?HasItem@BList@@$$FQBE_NPAX@Z
;	COMDAT __mep@?HasItem@BList@@$$FQBE_NPAX@Z
data	SEGMENT
__mep@?HasItem@BList@@$$FQBE_NPAX@Z TOKEN 0600004F
; Function compile flags: /Odt
data	ENDS
;	COMDAT ?HasItem@BList@@QBE_NPAX@Z
text	SEGMENT
?HasItem@BList@@QBE_NPAX@Z PROC NEAR			; BList::HasItem, COMDAT
	jmp	DWORD PTR __mep@?HasItem@BList@@$$FQBE_NPAX@Z
?HasItem@BList@@QBE_NPAX@Z ENDP				; BList::HasItem
	.bss
.local	$T6127,4
; Function compile flags: /Odt
	.text
.global	?IndexOf@BList@@$$FQBEHPAX@Z			; BList::IndexOf
?IndexOf@BList@@$$FQBEHPAX@Z:				; BList::IndexOf
;	.proc.def	D:I(II)

; Function Header:
; max stack depth = 3
; function size = 42 bytes
; local varsig tk = 0x11000010 
; Exception Information:
; 0 handlers, each consisting of filtered handlers

;	.formal.i4 1,"_item$" SIG: ptr.void
;	.formal.i4 0,"_this$" SIG: Optional C Binding Modifier(token:0xA242B6).Optional C Binding Modifier(token:0xA242B8).ptr.Optional C Binding Modifier(token:0xA242BB).valueType (token:0xA242BD)
;	.local.i4 0,"_i$5604"

;	.proc.beg

; 425  : 	for(b_int32 i = 0; i < fItemCount; i++)

	ldc.i.0		0		; i32 0x0
	stloc.0				; _i$5604
	br.s		$L5605
$L5606:
	ldloc.0				; _i$5604
	ldc.i.1		1		; i32 0x1
	add		
	stloc.0				; _i$5604
$L5605:
	ldloc.0				; _i$5604
	ldarg.0				; _this$
	ldc.i.8		8		; i32 0x8
	add		
	unaligned	1		; u32 0x1
	ldind.i4	
	bge.s		$L5607

; 426  : 	{
; 427  : 		if(fObjects[i] == item) return i;

	ldarg.0				; _this$
	ldc.i.4		4		; i32 0x4
	add		
	unaligned	1		; u32 0x1
	ldind.i4	
	ldloc.0				; _i$5604
	ldc.i.4		4		; i32 0x4
	mul		
	add		
	ldind.i4	
	ldarg.1				; _item$
	bne.un.s	$L5608
	ldloc.0				; _i$5604
	br.s		$L6126
$L5608:

; 428  : 	}

	br.s		$L5606
$L5607:

; 429  : 
; 430  : 	return -1;

	ldc.i.-1	-1		; i32 0xffffffff
	br.s		$L6126
$L6126:

; 431  : }

	ret		
 .end ?IndexOf@BList@@$$FQBEHPAX@Z			; BList::IndexOf
;	.proc.end.i4
text	ENDS
PUBLIC	?IndexOf@BList@@QBEHPAX@Z			; BList::IndexOf
PUBLIC	__mep@?IndexOf@BList@@$$FQBEHPAX@Z
;	COMDAT __mep@?IndexOf@BList@@$$FQBEHPAX@Z
data	SEGMENT
__mep@?IndexOf@BList@@$$FQBEHPAX@Z TOKEN 06000050
; Function compile flags: /Odt
data	ENDS
;	COMDAT ?IndexOf@BList@@QBEHPAX@Z
text	SEGMENT
?IndexOf@BList@@QBEHPAX@Z PROC NEAR			; BList::IndexOf, COMDAT
	jmp	DWORD PTR __mep@?IndexOf@BList@@$$FQBEHPAX@Z
?IndexOf@BList@@QBEHPAX@Z ENDP				; BList::IndexOf
; Function compile flags: /Odt
	.text
.global	?CountItems@BList@@$$FQBEHXZ			; BList::CountItems
?CountItems@BList@@$$FQBEHXZ:				; BList::CountItems
;	.proc.def	D:I(I)

; Function Header:
; max stack depth = 2
; function size = 10 bytes
; local varsig tk = 0x0 
; Exception Information:
; 0 handlers, each consisting of filtered handlers

;	.formal.i4 0,"_this$" SIG: Optional C Binding Modifier(token:0xA242B6).Optional C Binding Modifier(token:0xA242B8).ptr.Optional C Binding Modifier(token:0xA242BB).valueType (token:0xA242BD)

;	.proc.beg

; 437  : 	return fItemCount;

	ldarg.0				; _this$
	ldc.i.8		8		; i32 0x8
	add		
	unaligned	1		; u32 0x1
	ldind.i4	
	br.s		$L6139
$L6139:

; 438  : }

	ret		
 .end ?CountItems@BList@@$$FQBEHXZ			; BList::CountItems
;	.proc.end.i4
text	ENDS
PUBLIC	?CountItems@BList@@QBEHXZ			; BList::CountItems
PUBLIC	__mep@?CountItems@BList@@$$FQBEHXZ
;	COMDAT __mep@?CountItems@BList@@$$FQBEHXZ
data	SEGMENT
__mep@?CountItems@BList@@$$FQBEHXZ TOKEN 06000051
; Function compile flags: /Odt
data	ENDS
;	COMDAT ?CountItems@BList@@QBEHXZ
text	SEGMENT
?CountItems@BList@@QBEHXZ PROC NEAR			; BList::CountItems, COMDAT
	jmp	DWORD PTR __mep@?CountItems@BList@@$$FQBEHXZ
?CountItems@BList@@QBEHXZ ENDP				; BList::CountItems
; Function compile flags: /Odt
	.text
.global	?IsEmpty@BList@@$$FQBE_NXZ			; BList::IsEmpty
?IsEmpty@BList@@$$FQBE_NXZ:				; BList::IsEmpty
;	.proc.def	D:I(I)

; Function Header:
; max stack depth = 2
; function size = 14 bytes
; local varsig tk = 0x0 
; Exception Information:
; 0 handlers, each consisting of filtered handlers

;	.formal.i4 0,"_this$" SIG: Optional C Binding Modifier(token:0xA242B6).Optional C Binding Modifier(token:0xA242B8).ptr.Optional C Binding Modifier(token:0xA242BB).valueType (token:0xA242BD)

;	.proc.beg

; 444  : 	return(fItemCount == 0);

	ldarg.0				; _this$
	ldc.i.8		8		; i32 0x8
	add		
	unaligned	1		; u32 0x1
	ldind.i4	
	ldc.i.0		0		; i32 0x0
	ceq		
	conv.u1		
	br.s		$L6151
$L6151:

; 445  : }

	ret		
 .end ?IsEmpty@BList@@$$FQBE_NXZ			; BList::IsEmpty
;	.proc.end.u1
text	ENDS
PUBLIC	__mep@?IsEmpty@BList@@$$FQBE_NXZ
PUBLIC	?IsEmpty@BList@@QBE_NXZ				; BList::IsEmpty
;	COMDAT __mep@?IsEmpty@BList@@$$FQBE_NXZ
data	SEGMENT
__mep@?IsEmpty@BList@@$$FQBE_NXZ TOKEN 06000052
; Function compile flags: /Odt
data	ENDS
;	COMDAT ?IsEmpty@BList@@QBE_NXZ
text	SEGMENT
?IsEmpty@BList@@QBE_NXZ PROC NEAR			; BList::IsEmpty, COMDAT
	jmp	DWORD PTR __mep@?IsEmpty@BList@@$$FQBE_NXZ
?IsEmpty@BList@@QBE_NXZ ENDP				; BList::IsEmpty
.global	
	.bss
.local	,4
.local	$SigTok$01012009020f01,4
.local	$T6165,4
; Function compile flags: /Odt
	.text
.global	?DoForEach@BList@@$$FQAEXP6A_NPAX@Z@Z		; BList::DoForEach
?DoForEach@BList@@$$FQAEXP6A_NPAX@Z@Z:			; BList::DoForEach
;	.proc.def	D:V(II)

; Function Header:
; max stack depth = 3
; function size = 48 bytes
; local varsig tk = 0x11000010 
; Exception Information:
; 0 handlers, each consisting of filtered handlers

;	.formal.i4 1,"_func$" SIG: fnptr
;	.formal.i4 0,"_this$" SIG: Optional C Binding Modifier(token:0x9F6C5A).Optional C Binding Modifier(token:0x9F6C5C).ptr.valueType (token:0x9F6C5F)
;	.local.i4 0,"_i$5621"

;	.proc.beg

; 451  : 	if(!func) return;

	ldarg.1				; _func$
	brtrue.s	$L5620
	br.s		$L5619
$L5620:

; 452  : 
; 453  : 	for(b_int32 i = 0; i < fItemCount; i++)

	ldc.i.0		0		; i32 0x0
	stloc.0				; _i$5621
	br.s		$L5622
$L5623:
	ldloc.0				; _i$5621
	ldc.i.1		1		; i32 0x1
	add		
	stloc.0				; _i$5621
$L5622:
	ldloc.0				; _i$5621
	ldarg.0				; _this$
	ldc.i.8		8		; i32 0x8
	add		
	unaligned	1		; u32 0x1
	ldind.i4	
	bge.s		$L5619

; 454  : 	{
; 455  : 		if((*func)(fObjects[i])) break;

	ldarg.0				; _this$
	ldc.i.4		4		; i32 0x4
	add		
	unaligned	1		; u32 0x1
	ldind.i4	
	ldloc.0				; _i$5621
	ldc.i.4		4		; i32 0x4
	mul		
	add		
	ldind.i4	
	ldarg.1				; _func$
	calli		D:I(I)
	brfalse.s	$L5626
	br.s		$L5619
$L5626:

; 456  : 	}

	br.s		$L5623
$L5619:
$L6163:

; 457  : }

	ret		
 .end ?DoForEach@BList@@$$FQAEXP6A_NPAX@Z@Z		; BList::DoForEach
;	.proc.end.void
text	ENDS
PUBLIC	?DoForEach@BList@@QAEXP6A_NPAX@Z@Z		; BList::DoForEach
PUBLIC	__mep@?DoForEach@BList@@$$FQAEXP6A_NPAX@Z@Z
;	COMDAT __mep@?DoForEach@BList@@$$FQAEXP6A_NPAX@Z@Z
data	SEGMENT
__mep@?DoForEach@BList@@$$FQAEXP6A_NPAX@Z@Z TOKEN 06000053
; Function compile flags: /Odt
data	ENDS
;	COMDAT ?DoForEach@BList@@QAEXP6A_NPAX@Z@Z
text	SEGMENT
?DoForEach@BList@@QAEXP6A_NPAX@Z@Z PROC NEAR		; BList::DoForEach, COMDAT
	jmp	DWORD PTR __mep@?DoForEach@BList@@$$FQAEXP6A_NPAX@Z@Z
?DoForEach@BList@@QAEXP6A_NPAX@Z@Z ENDP			; BList::DoForEach
.global	
	.bss
.local	,4
.local	$SigTok$01022009020f010f01,4
.local	$T6179,4
; Function compile flags: /Odt
	.text
.global	?DoForEach@BList@@$$FQAEXP6A_NPAX0@Z0@Z		; BList::DoForEach
?DoForEach@BList@@$$FQAEXP6A_NPAX0@Z0@Z:		; BList::DoForEach
;	.proc.def	D:V(III)

; Function Header:
; max stack depth = 3
; function size = 49 bytes
; local varsig tk = 0x11000010 
; Exception Information:
; 0 handlers, each consisting of filtered handlers

;	.formal.i4 1,"_func$" SIG: fnptr
;	.formal.i4 2,"_user_data$" SIG: ptr.void
;	.formal.i4 0,"_this$" SIG: Optional C Binding Modifier(token:0x9F6C5A).Optional C Binding Modifier(token:0x9F6C5C).ptr.valueType (token:0x9F6C5F)
;	.local.i4 0,"_i$5636"

;	.proc.beg

; 463  : 	if(!func) return;

	ldarg.1				; _func$
	brtrue.s	$L5635
	br.s		$L5634
$L5635:

; 464  : 
; 465  : 	for(b_int32 i = 0; i < fItemCount; i++)

	ldc.i.0		0		; i32 0x0
	stloc.0				; _i$5636
	br.s		$L5637
$L5638:
	ldloc.0				; _i$5636
	ldc.i.1		1		; i32 0x1
	add		
	stloc.0				; _i$5636
$L5637:
	ldloc.0				; _i$5636
	ldarg.0				; _this$
	ldc.i.8		8		; i32 0x8
	add		
	unaligned	1		; u32 0x1
	ldind.i4	
	bge.s		$L5634

; 466  : 	{
; 467  : 		if((*func)(fObjects[i], user_data)) break;

	ldarg.0				; _this$
	ldc.i.4		4		; i32 0x4
	add		
	unaligned	1		; u32 0x1
	ldind.i4	
	ldloc.0				; _i$5636
	ldc.i.4		4		; i32 0x4
	mul		
	add		
	ldind.i4	
	ldarg.2				; _user_data$
	ldarg.1				; _func$
	calli		D:I(II)
	brfalse.s	$L5641
	br.s		$L5634
$L5641:

; 468  : 	}

	br.s		$L5638
$L5634:
$L6177:

; 469  : }

	ret		
 .end ?DoForEach@BList@@$$FQAEXP6A_NPAX0@Z0@Z		; BList::DoForEach
;	.proc.end.void
text	ENDS
PUBLIC	?DoForEach@BList@@QAEXP6A_NPAX0@Z0@Z		; BList::DoForEach
PUBLIC	__mep@?DoForEach@BList@@$$FQAEXP6A_NPAX0@Z0@Z
;	COMDAT __mep@?DoForEach@BList@@$$FQAEXP6A_NPAX0@Z0@Z
data	SEGMENT
__mep@?DoForEach@BList@@$$FQAEXP6A_NPAX0@Z0@Z TOKEN 06000054
; Function compile flags: /Odt
data	ENDS
;	COMDAT ?DoForEach@BList@@QAEXP6A_NPAX0@Z0@Z
text	SEGMENT
?DoForEach@BList@@QAEXP6A_NPAX0@Z0@Z PROC NEAR		; BList::DoForEach, COMDAT
	jmp	DWORD PTR __mep@?DoForEach@BList@@$$FQAEXP6A_NPAX0@Z0@Z
?DoForEach@BList@@QAEXP6A_NPAX0@Z0@Z ENDP		; BList::DoForEach
; Function compile flags: /Odt
	.text
.global	?Items@BList@@$$FQBEPAPAXXZ			; BList::Items
?Items@BList@@$$FQBEPAPAXXZ:				; BList::Items
;	.proc.def	D:I(I)

; Function Header:
; max stack depth = 2
; function size = 10 bytes
; local varsig tk = 0x0 
; Exception Information:
; 0 handlers, each consisting of filtered handlers

;	.formal.i4 0,"_this$" SIG: Optional C Binding Modifier(token:0xA242B6).Optional C Binding Modifier(token:0xA242B8).ptr.Optional C Binding Modifier(token:0xA242BB).valueType (token:0xA242BD)

;	.proc.beg

; 475  : 	return(fObjects);

	ldarg.0				; _this$
	ldc.i.4		4		; i32 0x4
	add		
	unaligned	1		; u32 0x1
	ldind.i4	
	br.s		$L6191
$L6191:

; 476  : }

	ret		
 .end ?Items@BList@@$$FQBEPAPAXXZ			; BList::Items
;	.proc.end.i4
text	ENDS
PUBLIC	?Items@BList@@QBEPAPAXXZ			; BList::Items
PUBLIC	__mep@?Items@BList@@$$FQBEPAPAXXZ
;	COMDAT __mep@?Items@BList@@$$FQBEPAPAXXZ
data	SEGMENT
__mep@?Items@BList@@$$FQBEPAPAXXZ TOKEN 06000055
; Function compile flags: /Odt
data	ENDS
;	COMDAT ?Items@BList@@QBEPAPAXXZ
text	SEGMENT
?Items@BList@@QBEPAPAXXZ PROC NEAR			; BList::Items, COMDAT
	jmp	DWORD PTR __mep@?Items@BList@@$$FQBEPAPAXXZ
?Items@BList@@QBEPAPAXXZ ENDP				; BList::Items
text	ENDS
END
