; Listing generated by Microsoft (R) Optimizing Compiler Version 13.10.3077 

; Generated by VC++ for Common Language Runtime
.file "\Documents and Settings\stasiek.TC12\My Documents\prc++\x86_libraries\Bhapi\src\kits\support\SimpleLocker.cpp"
	.rdata
	.space	20

$SG5583:
	.ascii	"BSimpleLocker::BSimpleLocker\000"
	.space	3

$SG5585:
	.ascii	"[SUPPORT]: %s --- Create simple locker failed!\000"
.global	
.global	
	.bss
.local	,4
.local	,4
; Function compile flags: /Odt
; File c:\program files\microsoft visual studio .net 2003\vc7\include\xmemory
	.text
	.comdat	any, ??0?$allocator@X@std@@$$FQAE@ABV01@@Z
.global	??0?$allocator@X@std@@$$FQAE@ABV01@@Z		; std::allocator<void>::allocator<void>
??0?$allocator@X@std@@$$FQAE@ABV01@@Z:			; std::allocator<void>::allocator<void>
;	.proc.def	D:I(II)

; Function Header:
; max stack depth = 1
; function size = 2 bytes
; local varsig tk = 0x0 
; Exception Information:
; 0 handlers, each consisting of filtered handlers

;	.formal.i4 0,"_this$" SIG: Optional C Binding Modifier(token:0x9B9902).Optional C Binding Modifier(token:0x9B9904).ptr.valueType (token:0x9B9907)

;	.proc.beg

; 197  : 		{	// construct by copying (do nothing)
; 198  : 		}

	ldarg.0				; _this$
$L5779:
	ret		
 .end ??0?$allocator@X@std@@$$FQAE@ABV01@@Z		; std::allocator<void>::allocator<void>
;	.proc.end.i4
text	ENDS
PUBLIC	??0?$allocator@X@std@@QAE@ABV01@@Z		; std::allocator<void>::allocator<void>
PUBLIC	__mep@??0?$allocator@X@std@@$$FQAE@ABV01@@Z
;	COMDAT __mep@??0?$allocator@X@std@@$$FQAE@ABV01@@Z
data	SEGMENT
__mep@??0?$allocator@X@std@@$$FQAE@ABV01@@Z TOKEN 06000038
; Function compile flags: /Odt
data	ENDS
;	COMDAT ??0?$allocator@X@std@@QAE@ABV01@@Z
text	SEGMENT
??0?$allocator@X@std@@QAE@ABV01@@Z PROC NEAR		; std::allocator<void>::allocator<void>, COMDAT
	jmp	DWORD PTR __mep@??0?$allocator@X@std@@$$FQAE@ABV01@@Z
??0?$allocator@X@std@@QAE@ABV01@@Z ENDP			; std::allocator<void>::allocator<void>
.global	??_7BSimpleLocker@@6B@				; BSimpleLocker::`vftable'
.global	??_R4BSimpleLocker@@6B@				; BSimpleLocker::`RTTI Complete Object Locator'
.global	??_R0?AVBSimpleLocker@@@8			; BSimpleLocker `RTTI Type Descriptor'
.global	??_R3BSimpleLocker@@8				; BSimpleLocker::`RTTI Class Hierarchy Descriptor'
.global	??_R2BSimpleLocker@@8				; BSimpleLocker::`RTTI Base Class Array'
.global	??_R1A@?0A@A@BSimpleLocker@@8			; BSimpleLocker::`RTTI Base Class Descriptor at (0,-1,0,0)'
.global	
.global	
	.bss
.local	$VarArgTok$1$05022009010f202d203504410f202d203504,4
.local	,4
.local	,4
; File c:\documents and settings\stasiek.tc12\my documents\prc++\x86_libraries\bhapi\src\kits\support\simplelocker.cpp
	.data
	.comdat	largest, ??_7BSimpleLocker@@6B@

??_7BSimpleLocker@@6B@:					; BSimpleLocker::`vftable'
	DD	??_R4BSimpleLocker@@6B@
??_7BSimpleLocker@@6B@:					; BSimpleLocker::`vftable'
	DD	??_EBSimpleLocker@@UAEPAXI@Z
	.rdataseg	.rdata$r
	.comdat	any, ??_R4BSimpleLocker@@6B@

??_R4BSimpleLocker@@6B@:				; BSimpleLocker::`RTTI Complete Object Locator'
	.word	0x0
??_R4BSimpleLocker@@6B@:				; BSimpleLocker::`RTTI Complete Object Locator'
	.word	0x0
??_R4BSimpleLocker@@6B@:				; BSimpleLocker::`RTTI Complete Object Locator'
	.word	0x0
??_R4BSimpleLocker@@6B@:				; BSimpleLocker::`RTTI Complete Object Locator'
	DD	??_R0?AVBSimpleLocker@@@8
??_R4BSimpleLocker@@6B@:				; BSimpleLocker::`RTTI Complete Object Locator'
	DD	??_R3BSimpleLocker@@8
	.data
	.comdat	any, ??_R0?AVBSimpleLocker@@@8

??_R0?AVBSimpleLocker@@@8:				; BSimpleLocker `RTTI Type Descriptor'
	DD	??_7type_info@@6B@
??_R0?AVBSimpleLocker@@@8:				; BSimpleLocker `RTTI Type Descriptor'
	.word	0x0
??_R0?AVBSimpleLocker@@@8:				; BSimpleLocker `RTTI Type Descriptor'
	.ascii	".?AVBSimpleLocker@@\000"
	.rdataseg	.rdata$r
	.comdat	any, ??_R3BSimpleLocker@@8

??_R3BSimpleLocker@@8:					; BSimpleLocker::`RTTI Class Hierarchy Descriptor'
	.word	0x0
??_R3BSimpleLocker@@8:					; BSimpleLocker::`RTTI Class Hierarchy Descriptor'
	.word	0x0
??_R3BSimpleLocker@@8:					; BSimpleLocker::`RTTI Class Hierarchy Descriptor'
	.word	0x1
??_R3BSimpleLocker@@8:					; BSimpleLocker::`RTTI Class Hierarchy Descriptor'
	DD	??_R2BSimpleLocker@@8
	.rdataseg	.rdata$r
	.comdat	any, ??_R2BSimpleLocker@@8

??_R2BSimpleLocker@@8:					; BSimpleLocker::`RTTI Base Class Array'
	DD	??_R1A@?0A@A@BSimpleLocker@@8
	.rdataseg	.rdata$r
	.comdat	any, ??_R1A@?0A@A@BSimpleLocker@@8

??_R1A@?0A@A@BSimpleLocker@@8:				; BSimpleLocker::`RTTI Base Class Descriptor at (0,-1,0,0)'
	DD	??_R0?AVBSimpleLocker@@@8
??_R1A@?0A@A@BSimpleLocker@@8:				; BSimpleLocker::`RTTI Base Class Descriptor at (0,-1,0,0)'
	.word	0x0
??_R1A@?0A@A@BSimpleLocker@@8:				; BSimpleLocker::`RTTI Base Class Descriptor at (0,-1,0,0)'
	.word	0x0
??_R1A@?0A@A@BSimpleLocker@@8:				; BSimpleLocker::`RTTI Base Class Descriptor at (0,-1,0,0)'
	.word	0xffffffff
??_R1A@?0A@A@BSimpleLocker@@8:				; BSimpleLocker::`RTTI Base Class Descriptor at (0,-1,0,0)'
	.word	0x0
??_R1A@?0A@A@BSimpleLocker@@8:				; BSimpleLocker::`RTTI Base Class Descriptor at (0,-1,0,0)'
	.word	0x0
; Function compile flags: /Odt
	.text
.global	??0BSimpleLocker@@$$FQAE@_N@Z			; BSimpleLocker::BSimpleLocker
??0BSimpleLocker@@$$FQAE@_N@Z:				; BSimpleLocker::BSimpleLocker
;	.proc.def	D:I(II)

; Function Header:
; max stack depth = 2
; function size = 51 bytes
; local varsig tk = 0x0 
; Exception Information:
; 0 handlers, each consisting of filtered handlers

;	.formal.u1 1,"_assert$" SIG: bool
;	.formal.i4 0,"_this$" SIG: Optional C Binding Modifier(token:0x9B4582).Optional C Binding Modifier(token:0x9B4584).ptr.valueType (token:0x9B4587)

;	.proc.beg

; 37   : {

	ldarg.0				; _this$
	ldsflda		??_7BSimpleLocker@@6B@
	unaligned	1		; u32 0x1
	stind.i4	

; 38   : 	fLocker = bhapi::create_simple_locker();

	ldarg.0				; _this$
	ldc.i.4		4		; i32 0x4
	add		
	call		?create_simple_locker@@$$J0YAPAXXZ
	unaligned	1		; u32 0x1
	stind.i4	

; 39   : 	if(fLocker == NULL && assert) BHAPI_ERROR("[SUPPORT]: %s --- Create simple locker failed!", __PRETTY_FUNCTION__);

	ldarg.0				; _this$
	ldc.i.4		4		; i32 0x4
	add		
	unaligned	1		; u32 0x1
	ldind.i4	
	brtrue.s	$L5580
	ldarg.1				; _assert$
	brfalse.s	$L5580
	ldsflda		$SG5585
	ldsflda		$SG5583
	call		?BHAPI_ERROR@@$$J0YAXPBDZZ
$L5580:

; 40   : }

	ldarg.0				; _this$
$L5794:
	ret		
 .end ??0BSimpleLocker@@$$FQAE@_N@Z			; BSimpleLocker::BSimpleLocker
;	.proc.end.i4
text	ENDS
PUBLIC	??0BSimpleLocker@@QAE@_N@Z			; BSimpleLocker::BSimpleLocker
PUBLIC	__mep@??0BSimpleLocker@@$$FQAE@_N@Z
;	COMDAT __mep@??0BSimpleLocker@@$$FQAE@_N@Z
data	SEGMENT
__mep@??0BSimpleLocker@@$$FQAE@_N@Z TOKEN 06000039
; Function compile flags: /Odt
data	ENDS
;	COMDAT ??0BSimpleLocker@@QAE@_N@Z
text	SEGMENT
??0BSimpleLocker@@QAE@_N@Z PROC NEAR			; BSimpleLocker::BSimpleLocker, COMDAT
	jmp	DWORD PTR __mep@??0BSimpleLocker@@$$FQAE@_N@Z
??0BSimpleLocker@@QAE@_N@Z ENDP				; BSimpleLocker::BSimpleLocker
.global	__unep@??1BSimpleLocker@@$$FUAE@XZ
	.rdata
	.comdat	any, __unep@??1BSimpleLocker@@$$FUAE@XZ

__unep@??1BSimpleLocker@@$$FUAE@XZ:
	DD	??1BSimpleLocker@@UAE@XZ
; Function compile flags: /Odt
	.text
	.comdat	any, ??_EBSimpleLocker@@$$FUAEPAXI@Z
.global	??_EBSimpleLocker@@$$FUAEPAXI@Z			; BSimpleLocker::`vector deleting destructor'
??_EBSimpleLocker@@$$FUAEPAXI@Z:			; BSimpleLocker::`vector deleting destructor'
;	.proc.def	D:I(II)

; Function Header:
; max stack depth = 4
; function size = 60 bytes
; local varsig tk = 0x0 
; Exception Information:
; 0 handlers, each consisting of filtered handlers

;	.formal.u4 1,"___flags$"
;	.formal.i4 0,"_this$" SIG: Optional C Binding Modifier(token:0x9B4582).Optional C Binding Modifier(token:0x9B4584).ptr.valueType (token:0x9B4587)

;	.proc.beg
	ldarg.1				; ___flags$
	ldc.i.2		2		; u32 0x2
	and		
	brfalse.s	$L5596
	ldarg.0				; _this$
	ldc.i.8		8		; u32 0x8
	ldarg.0				; _this$
	ldc.i.4		4		; i32 0x4
	sub		
	ldind.i4	
	ldsfld		__unep@??1BSimpleLocker@@$$FUAE@XZ
	call		??_M@$$FYGXPAXIHP6EX0@Z@Z
	ldarg.1				; ___flags$
	ldc.i.1		1		; u32 0x1
	and		
	brfalse.s	$L5597
	ldarg.0				; _this$
	ldc.i.4		4		; i32 0x4
	sub		
	call		??_V@$$FYAXPAX@Z
$L5597:
	ldarg.0				; _this$
	ldc.i.4		4		; i32 0x4
	sub		
	br.s		$L5813
$L5596:
	ldarg.0				; _this$
	call		??1BSimpleLocker@@$$FUAE@XZ
	ldarg.1				; ___flags$
	ldc.i.1		1		; u32 0x1
	and		
	brfalse.s	$L5599
	ldarg.0				; _this$
	call		??3@$$FYAXPAX@Z
$L5599:
	ldarg.0				; _this$
	br.s		$L5813
$L5813:
	ret		
 .end ??_EBSimpleLocker@@$$FUAEPAXI@Z			; BSimpleLocker::`vector deleting destructor'
;	.proc.end.i4
text	ENDS
PUBLIC	__mep@??_EBSimpleLocker@@$$FUAEPAXI@Z
;	COMDAT __mep@??_EBSimpleLocker@@$$FUAEPAXI@Z
data	SEGMENT
__mep@??_EBSimpleLocker@@$$FUAEPAXI@Z TOKEN 0600003A
; Function compile flags: /Odt
data	ENDS
;	COMDAT ??_EBSimpleLocker@@UAEPAXI@Z
text	SEGMENT
??_EBSimpleLocker@@UAEPAXI@Z PROC NEAR			; BSimpleLocker::`vector deleting destructor', COMDAT
	jmp	DWORD PTR __mep@??_EBSimpleLocker@@$$FUAEPAXI@Z
??_EBSimpleLocker@@UAEPAXI@Z ENDP			; BSimpleLocker::`vector deleting destructor'
; Function compile flags: /Odt
	.text
.global	??1BSimpleLocker@@$$FUAE@XZ			; BSimpleLocker::~BSimpleLocker
??1BSimpleLocker@@$$FUAE@XZ:				; BSimpleLocker::~BSimpleLocker
;	.proc.def	D:V(I)

; Function Header:
; max stack depth = 2
; function size = 33 bytes
; local varsig tk = 0x0 
; Exception Information:
; 0 handlers, each consisting of filtered handlers

;	.formal.i4 0,"_this$" SIG: Optional C Binding Modifier(token:0x9B4582).Optional C Binding Modifier(token:0x9B4584).ptr.valueType (token:0x9B4587)

;	.proc.beg

; 44   : {

	ldarg.0				; _this$
	ldsflda		??_7BSimpleLocker@@6B@
	unaligned	1		; u32 0x1
	stind.i4	

; 45   : 	if(fLocker != NULL) bhapi::delete_simple_locker(fLocker);

	ldarg.0				; _this$
	ldc.i.4		4		; i32 0x4
	add		
	unaligned	1		; u32 0x1
	ldind.i4	
	brfalse.s	$L5602
	ldarg.0				; _this$
	ldc.i.4		4		; i32 0x4
	add		
	unaligned	1		; u32 0x1
	ldind.i4	
	call		?delete_simple_locker@@$$J0YAHPAX@Z
	pop		
$L5602:
$L5821:

; 46   : }

	ret		
 .end ??1BSimpleLocker@@$$FUAE@XZ			; BSimpleLocker::~BSimpleLocker
;	.proc.end.void
text	ENDS
PUBLIC	__mep@??1BSimpleLocker@@$$FUAE@XZ
;	COMDAT __mep@??1BSimpleLocker@@$$FUAE@XZ
data	SEGMENT
__mep@??1BSimpleLocker@@$$FUAE@XZ TOKEN 0600003B
; Function compile flags: /Odt
data	ENDS
;	COMDAT ??1BSimpleLocker@@UAE@XZ
text	SEGMENT
??1BSimpleLocker@@UAE@XZ PROC NEAR			; BSimpleLocker::~BSimpleLocker, COMDAT
	jmp	DWORD PTR __mep@??1BSimpleLocker@@$$FUAE@XZ
??1BSimpleLocker@@UAE@XZ ENDP				; BSimpleLocker::~BSimpleLocker
.global	
	.bss
.local	,4
; Function compile flags: /Odt
	.text
.global	?IsValid@BSimpleLocker@@$$FQBE_NXZ		; BSimpleLocker::IsValid
?IsValid@BSimpleLocker@@$$FQBE_NXZ:			; BSimpleLocker::IsValid
;	.proc.def	D:I(I)

; Function Header:
; max stack depth = 2
; function size = 18 bytes
; local varsig tk = 0x0 
; Exception Information:
; 0 handlers, each consisting of filtered handlers

;	.formal.i4 0,"_this$" SIG: Optional C Binding Modifier(token:0x9B918A).Optional C Binding Modifier(token:0x9B918C).ptr.Optional C Binding Modifier(token:0x9B918F).valueType (token:0x9B9191)

;	.proc.beg

; 52   : 	return(fLocker != NULL);

	ldarg.0				; _this$
	ldc.i.4		4		; i32 0x4
	add		
	unaligned	1		; u32 0x1
	ldind.i4	
	ldc.i.0		0		; u32 0x0
	bne.un.s	$L5833
	ldc.i.0		0		; i32 0x0
	br.s		$L5834
$L5833:
	ldc.i.1		1		; i32 0x1
$L5834:
	conv.u1		
	br.s		$L5835
$L5835:

; 53   : }

	ret		
 .end ?IsValid@BSimpleLocker@@$$FQBE_NXZ		; BSimpleLocker::IsValid
;	.proc.end.u1
text	ENDS
PUBLIC	?IsValid@BSimpleLocker@@QBE_NXZ			; BSimpleLocker::IsValid
PUBLIC	__mep@?IsValid@BSimpleLocker@@$$FQBE_NXZ
;	COMDAT __mep@?IsValid@BSimpleLocker@@$$FQBE_NXZ
data	SEGMENT
__mep@?IsValid@BSimpleLocker@@$$FQBE_NXZ TOKEN 0600003C
; Function compile flags: /Odt
data	ENDS
;	COMDAT ?IsValid@BSimpleLocker@@QBE_NXZ
text	SEGMENT
?IsValid@BSimpleLocker@@QBE_NXZ PROC NEAR		; BSimpleLocker::IsValid, COMDAT
	jmp	DWORD PTR __mep@?IsValid@BSimpleLocker@@$$FQBE_NXZ
?IsValid@BSimpleLocker@@QBE_NXZ ENDP			; BSimpleLocker::IsValid
	.bss
.local	$T5851,4
; Function compile flags: /Odt
	.text
.global	?Lock@BSimpleLocker@@$$FQAE_NXZ			; BSimpleLocker::Lock
?Lock@BSimpleLocker@@$$FQAE_NXZ:			; BSimpleLocker::Lock
;	.proc.def	D:I(I)

; Function Header:
; max stack depth = 2
; function size = 30 bytes
; local varsig tk = 0x11000006 
; Exception Information:
; 0 handlers, each consisting of filtered handlers

;	.formal.i4 0,"_this$" SIG: Optional C Binding Modifier(token:0x9B4582).Optional C Binding Modifier(token:0x9B4584).ptr.valueType (token:0x9B4587)

;	.proc.beg

; 59   : 	return(fLocker != NULL ? bhapi::lock_simple_locker(fLocker) : false);

	ldarg.0				; _this$
	ldc.i.4		4		; i32 0x4
	add		
	unaligned	1		; u32 0x1
	ldind.i4	
	brfalse.s	$L5840
	ldarg.0				; _this$
	ldc.i.4		4		; i32 0x4
	add		
	unaligned	1		; u32 0x1
	ldind.i4	
	call		?lock_simple_locker@@$$J0YA_NPAX@Z
	stloc.0				
	br.s		$L5841
$L5840:
	ldc.i.0		0		; u8 0x0
	stloc.0				
$L5841:
	ldloc.0				
	br.s		$L5850
$L5850:

; 60   : }

	ret		
 .end ?Lock@BSimpleLocker@@$$FQAE_NXZ			; BSimpleLocker::Lock
;	.proc.end.u1
text	ENDS
PUBLIC	?Lock@BSimpleLocker@@QAE_NXZ			; BSimpleLocker::Lock
PUBLIC	__mep@?Lock@BSimpleLocker@@$$FQAE_NXZ
;	COMDAT __mep@?Lock@BSimpleLocker@@$$FQAE_NXZ
data	SEGMENT
__mep@?Lock@BSimpleLocker@@$$FQAE_NXZ TOKEN 0600003D
; Function compile flags: /Odt
data	ENDS
;	COMDAT ?Lock@BSimpleLocker@@QAE_NXZ
text	SEGMENT
?Lock@BSimpleLocker@@QAE_NXZ PROC NEAR			; BSimpleLocker::Lock, COMDAT
	jmp	DWORD PTR __mep@?Lock@BSimpleLocker@@$$FQAE_NXZ
?Lock@BSimpleLocker@@QAE_NXZ ENDP			; BSimpleLocker::Lock
; Function compile flags: /Odt
	.text
.global	?Unlock@BSimpleLocker@@$$FQAEXXZ		; BSimpleLocker::Unlock
?Unlock@BSimpleLocker@@$$FQAEXXZ:			; BSimpleLocker::Unlock
;	.proc.def	D:V(I)

; Function Header:
; max stack depth = 2
; function size = 22 bytes
; local varsig tk = 0x0 
; Exception Information:
; 0 handlers, each consisting of filtered handlers

;	.formal.i4 0,"_this$" SIG: Optional C Binding Modifier(token:0x9B4582).Optional C Binding Modifier(token:0x9B4584).ptr.valueType (token:0x9B4587)

;	.proc.beg

; 66   : 	if(fLocker != NULL) bhapi::unlock_simple_locker(fLocker);

	ldarg.0				; _this$
	ldc.i.4		4		; i32 0x4
	add		
	unaligned	1		; u32 0x1
	ldind.i4	
	brfalse.s	$L5613
	ldarg.0				; _this$
	ldc.i.4		4		; i32 0x4
	add		
	unaligned	1		; u32 0x1
	ldind.i4	
	call		?unlock_simple_locker@@$$J0YAXPAX@Z
$L5613:
$L5863:

; 67   : }

	ret		
 .end ?Unlock@BSimpleLocker@@$$FQAEXXZ			; BSimpleLocker::Unlock
;	.proc.end.void
text	ENDS
PUBLIC	?Unlock@BSimpleLocker@@QAEXXZ			; BSimpleLocker::Unlock
PUBLIC	__mep@?Unlock@BSimpleLocker@@$$FQAEXXZ
;	COMDAT __mep@?Unlock@BSimpleLocker@@$$FQAEXXZ
data	SEGMENT
__mep@?Unlock@BSimpleLocker@@$$FQAEXXZ TOKEN 0600003E
; Function compile flags: /Odt
data	ENDS
;	COMDAT ?Unlock@BSimpleLocker@@QAEXXZ
text	SEGMENT
?Unlock@BSimpleLocker@@QAEXXZ PROC NEAR			; BSimpleLocker::Unlock, COMDAT
	jmp	DWORD PTR __mep@?Unlock@BSimpleLocker@@$$FQAEXXZ
?Unlock@BSimpleLocker@@QAEXXZ ENDP			; BSimpleLocker::Unlock
text	ENDS
END
