; Listing generated by Microsoft (R) Optimizing Compiler Version 13.10.3077 

; Generated by VC++ for Common Language Runtime
.file "\Documents and Settings\stasiek.TC12\My Documents\prc++\x86_libraries\Bhapi\src\kits\support\StreamIO.cpp"
	.rdata
	.space	16

$SG6153:
	.ascii	"%p\000"
	.space	1

$SG6160:
	.ascii	"ture\000"
	.space	3

$SG6162:
	.ascii	"false\000"
.global	
.global	
	.bss
.local	,4
.local	,4
; Function compile flags: /Odt
; File c:\program files\microsoft visual studio .net 2003\vc7\include\xmemory
	.text
	.comdat	any, ??0?$allocator@X@std@@$$FQAE@ABV01@@Z
.global	??0?$allocator@X@std@@$$FQAE@ABV01@@Z		; std::allocator<void>::allocator<void>
??0?$allocator@X@std@@$$FQAE@ABV01@@Z:			; std::allocator<void>::allocator<void>
;	.proc.def	D:I(II)

; Function Header:
; max stack depth = 1
; function size = 2 bytes
; local varsig tk = 0x0 
; Exception Information:
; 0 handlers, each consisting of filtered handlers

;	.formal.i4 0,"_this$" SIG: Optional C Binding Modifier(token:0x9BD146).Optional C Binding Modifier(token:0x9BD148).ptr.valueType (token:0x9BD14B)

;	.proc.beg

; 197  : 		{	// construct by copying (do nothing)
; 198  : 		}

	ldarg.0				; _this$
$L6381:
	ret		
 .end ??0?$allocator@X@std@@$$FQAE@ABV01@@Z		; std::allocator<void>::allocator<void>
;	.proc.end.i4
text	ENDS
PUBLIC	??0?$allocator@X@std@@QAE@ABV01@@Z		; std::allocator<void>::allocator<void>
PUBLIC	__mep@??0?$allocator@X@std@@$$FQAE@ABV01@@Z
;	COMDAT __mep@??0?$allocator@X@std@@$$FQAE@ABV01@@Z
data	SEGMENT
__mep@??0?$allocator@X@std@@$$FQAE@ABV01@@Z TOKEN 06000038
; Function compile flags: /Odt
data	ENDS
;	COMDAT ??0?$allocator@X@std@@QAE@ABV01@@Z
text	SEGMENT
??0?$allocator@X@std@@QAE@ABV01@@Z PROC NEAR		; std::allocator<void>::allocator<void>, COMDAT
	jmp	DWORD PTR __mep@??0?$allocator@X@std@@$$FQAE@ABV01@@Z
??0?$allocator@X@std@@QAE@ABV01@@Z ENDP			; std::allocator<void>::allocator<void>
.global	??_R4BStreamIO@@6B@				; BStreamIO::`RTTI Complete Object Locator'
.global	??_R0?AVBStreamIO@@@8				; BStreamIO `RTTI Type Descriptor'
.global	??_R3BStreamIO@@8				; BStreamIO::`RTTI Class Hierarchy Descriptor'
.global	??_R2BStreamIO@@8				; BStreamIO::`RTTI Base Class Array'
.global	??_R1A@?0A@A@BStreamIO@@8			; BStreamIO::`RTTI Base Class Descriptor at (0,-1,0,0)'
.global	??_R1A@?0A@A@BDataIO@@8				; BDataIO::`RTTI Base Class Descriptor at (0,-1,0,0)'
.global	??_R0?AVBDataIO@@@8				; BDataIO `RTTI Type Descriptor'
.global	
.global	??_7BStreamIO@@6B@				; BStreamIO::`vftable'
	.bss
.local	,4
; File c:\documents and settings\stasiek.tc12\my documents\prc++\x86_libraries\bhapi\src\kits\support\streamio.cpp
	.data
	.comdat	largest, ??_7BStreamIO@@6B@

??_7BStreamIO@@6B@:					; BStreamIO::`vftable'
	DD	??_R4BStreamIO@@6B@
??_7BStreamIO@@6B@:					; BStreamIO::`vftable'
	DD	??_EBStreamIO@@UAEPAXI@Z
??_7BStreamIO@@6B@:					; BStreamIO::`vftable'
	DD	?Read@BStreamIO@@UAEIPAXI@Z
??_7BStreamIO@@6B@:					; BStreamIO::`vftable'
	DD	?Write@BStreamIO@@UAEIPBXI@Z
	.rdata
	.comdat	any, __unep@??1BDataIO@@$$FUAE@XZ

__unep@??1BDataIO@@$$FUAE@XZ:
	DD	??1BDataIO@@UAE@XZ
	.rdataseg	.rdata$r
	.comdat	any, ??_R4BStreamIO@@6B@

??_R4BStreamIO@@6B@:					; BStreamIO::`RTTI Complete Object Locator'
	.word	0x0
??_R4BStreamIO@@6B@:					; BStreamIO::`RTTI Complete Object Locator'
	.word	0x0
??_R4BStreamIO@@6B@:					; BStreamIO::`RTTI Complete Object Locator'
	.word	0x0
??_R4BStreamIO@@6B@:					; BStreamIO::`RTTI Complete Object Locator'
	DD	??_R0?AVBStreamIO@@@8
??_R4BStreamIO@@6B@:					; BStreamIO::`RTTI Complete Object Locator'
	DD	??_R3BStreamIO@@8
	.data
	.comdat	any, ??_R0?AVBStreamIO@@@8

??_R0?AVBStreamIO@@@8:					; BStreamIO `RTTI Type Descriptor'
	DD	??_7type_info@@6B@
??_R0?AVBStreamIO@@@8:					; BStreamIO `RTTI Type Descriptor'
	.word	0x0
??_R0?AVBStreamIO@@@8:					; BStreamIO `RTTI Type Descriptor'
	.ascii	".?AVBStreamIO@@\000"
	.rdataseg	.rdata$r
	.comdat	any, ??_R3BStreamIO@@8

??_R3BStreamIO@@8:					; BStreamIO::`RTTI Class Hierarchy Descriptor'
	.word	0x0
??_R3BStreamIO@@8:					; BStreamIO::`RTTI Class Hierarchy Descriptor'
	.word	0x0
??_R3BStreamIO@@8:					; BStreamIO::`RTTI Class Hierarchy Descriptor'
	.word	0x2
??_R3BStreamIO@@8:					; BStreamIO::`RTTI Class Hierarchy Descriptor'
	DD	??_R2BStreamIO@@8
	.rdataseg	.rdata$r
	.comdat	any, ??_R2BStreamIO@@8

??_R2BStreamIO@@8:					; BStreamIO::`RTTI Base Class Array'
	DD	??_R1A@?0A@A@BStreamIO@@8
??_R2BStreamIO@@8:					; BStreamIO::`RTTI Base Class Array'
	DD	??_R1A@?0A@A@BDataIO@@8
	.rdataseg	.rdata$r
	.comdat	any, ??_R1A@?0A@A@BStreamIO@@8

??_R1A@?0A@A@BStreamIO@@8:				; BStreamIO::`RTTI Base Class Descriptor at (0,-1,0,0)'
	DD	??_R0?AVBStreamIO@@@8
??_R1A@?0A@A@BStreamIO@@8:				; BStreamIO::`RTTI Base Class Descriptor at (0,-1,0,0)'
	.word	0x1
??_R1A@?0A@A@BStreamIO@@8:				; BStreamIO::`RTTI Base Class Descriptor at (0,-1,0,0)'
	.word	0x0
??_R1A@?0A@A@BStreamIO@@8:				; BStreamIO::`RTTI Base Class Descriptor at (0,-1,0,0)'
	.word	0xffffffff
??_R1A@?0A@A@BStreamIO@@8:				; BStreamIO::`RTTI Base Class Descriptor at (0,-1,0,0)'
	.word	0x0
??_R1A@?0A@A@BStreamIO@@8:				; BStreamIO::`RTTI Base Class Descriptor at (0,-1,0,0)'
	.word	0x0
	.rdataseg	.rdata$r
	.comdat	any, ??_R1A@?0A@A@BDataIO@@8

??_R1A@?0A@A@BDataIO@@8:				; BDataIO::`RTTI Base Class Descriptor at (0,-1,0,0)'
	DD	??_R0?AVBDataIO@@@8
??_R1A@?0A@A@BDataIO@@8:				; BDataIO::`RTTI Base Class Descriptor at (0,-1,0,0)'
	.word	0x0
??_R1A@?0A@A@BDataIO@@8:				; BDataIO::`RTTI Base Class Descriptor at (0,-1,0,0)'
	.word	0x0
??_R1A@?0A@A@BDataIO@@8:				; BDataIO::`RTTI Base Class Descriptor at (0,-1,0,0)'
	.word	0xffffffff
??_R1A@?0A@A@BDataIO@@8:				; BDataIO::`RTTI Base Class Descriptor at (0,-1,0,0)'
	.word	0x0
??_R1A@?0A@A@BDataIO@@8:				; BDataIO::`RTTI Base Class Descriptor at (0,-1,0,0)'
	.word	0x0
	.data
	.comdat	any, ??_R0?AVBDataIO@@@8

??_R0?AVBDataIO@@@8:					; BDataIO `RTTI Type Descriptor'
	DD	??_7type_info@@6B@
??_R0?AVBDataIO@@@8:					; BDataIO `RTTI Type Descriptor'
	.word	0x0
??_R0?AVBDataIO@@@8:					; BDataIO `RTTI Type Descriptor'
	.ascii	".?AVBDataIO@@\000"
; Function compile flags: /Odt
	.text
.global	??0BStreamIO@@$$FQAE@XZ				; BStreamIO::BStreamIO
??0BStreamIO@@$$FQAE@XZ:				; BStreamIO::BStreamIO
;	.proc.def	D:I(I)

; Function Header:
; max stack depth = 2
; function size = 33 bytes
; local varsig tk = 0x0 
; Exception Information:
; 1 handlers, each consisting of filtered handlers

;	.formal.i4 0,"_this$" SIG: Optional C Binding Modifier(token:0x9BAECA).Optional C Binding Modifier(token:0x9BAECC).ptr.valueType (token:0x9BAECF)

;	.proc.beg

; 51   : {

	ldarg.0				; _this$
	call		??0BDataIO@@$$FQAE@XZ
	pop		
$L6408:
	ldarg.0				; _this$
	ldsflda		??_7BStreamIO@@6B@
	unaligned	1		; u32 0x1
	stind.i4	
	leave.s		$L6409
$L6410:
	ldsfld		__unep@??1BDataIO@@$$FUAE@XZ
	ldarg.0				; _this$
	call		?__CxxCallUnwindDtor@@$$J0YAXP6EXPAX@Z0@Z
	endfinally	
$L6409:

; 52   : }

	ldarg.0				; _this$
$L6411:
	ret		
 .end ??0BStreamIO@@$$FQAE@XZ				; BStreamIO::BStreamIO
;	.proc.end.i4
text	ENDS
PUBLIC	??0BStreamIO@@QAE@XZ				; BStreamIO::BStreamIO
PUBLIC	__mep@??0BStreamIO@@$$FQAE@XZ
;	COMDAT __mep@??0BStreamIO@@$$FQAE@XZ
data	SEGMENT
__mep@??0BStreamIO@@$$FQAE@XZ TOKEN 06000048
; Function compile flags: /Odt
data	ENDS
;	COMDAT ??0BStreamIO@@QAE@XZ
text	SEGMENT
??0BStreamIO@@QAE@XZ PROC NEAR				; BStreamIO::BStreamIO, COMDAT
	jmp	DWORD PTR __mep@??0BStreamIO@@$$FQAE@XZ
??0BStreamIO@@QAE@XZ ENDP				; BStreamIO::BStreamIO
.global	__unep@??1BStreamIO@@$$FUAE@XZ
	.rdata
	.comdat	any, __unep@??1BStreamIO@@$$FUAE@XZ

__unep@??1BStreamIO@@$$FUAE@XZ:
	DD	??1BStreamIO@@UAE@XZ
; Function compile flags: /Odt
	.text
	.comdat	any, ??_EBStreamIO@@$$FUAEPAXI@Z
.global	??_EBStreamIO@@$$FUAEPAXI@Z			; BStreamIO::`vector deleting destructor'
??_EBStreamIO@@$$FUAEPAXI@Z:				; BStreamIO::`vector deleting destructor'
;	.proc.def	D:I(II)

; Function Header:
; max stack depth = 4
; function size = 60 bytes
; local varsig tk = 0x0 
; Exception Information:
; 0 handlers, each consisting of filtered handlers

;	.formal.u4 1,"___flags$"
;	.formal.i4 0,"_this$" SIG: Optional C Binding Modifier(token:0x9BAECA).Optional C Binding Modifier(token:0x9BAECC).ptr.valueType (token:0x9BAECF)

;	.proc.beg
	ldarg.1				; ___flags$
	ldc.i.2		2		; u32 0x2
	and		
	brfalse.s	$L6064
	ldarg.0				; _this$
	ldc.i.4		4		; u32 0x4
	ldarg.0				; _this$
	ldc.i.4		4		; i32 0x4
	sub		
	ldind.i4	
	ldsfld		__unep@??1BStreamIO@@$$FUAE@XZ
	call		??_M@$$FYGXPAXIHP6EX0@Z@Z
	ldarg.1				; ___flags$
	ldc.i.1		1		; u32 0x1
	and		
	brfalse.s	$L6065
	ldarg.0				; _this$
	ldc.i.4		4		; i32 0x4
	sub		
	call		??_V@$$FYAXPAX@Z
$L6065:
	ldarg.0				; _this$
	ldc.i.4		4		; i32 0x4
	sub		
	br.s		$L6439
$L6064:
	ldarg.0				; _this$
	call		??1BStreamIO@@$$FUAE@XZ
	ldarg.1				; ___flags$
	ldc.i.1		1		; u32 0x1
	and		
	brfalse.s	$L6067
	ldarg.0				; _this$
	call		??3@$$FYAXPAX@Z
$L6067:
	ldarg.0				; _this$
	br.s		$L6439
$L6439:
	ret		
 .end ??_EBStreamIO@@$$FUAEPAXI@Z			; BStreamIO::`vector deleting destructor'
;	.proc.end.i4
text	ENDS
PUBLIC	__mep@??_EBStreamIO@@$$FUAEPAXI@Z
;	COMDAT __mep@??_EBStreamIO@@$$FUAEPAXI@Z
data	SEGMENT
__mep@??_EBStreamIO@@$$FUAEPAXI@Z TOKEN 06000049
; Function compile flags: /Odt
data	ENDS
;	COMDAT ??_EBStreamIO@@UAEPAXI@Z
text	SEGMENT
??_EBStreamIO@@UAEPAXI@Z PROC NEAR			; BStreamIO::`vector deleting destructor', COMDAT
	jmp	DWORD PTR __mep@??_EBStreamIO@@$$FUAEPAXI@Z
??_EBStreamIO@@UAEPAXI@Z ENDP				; BStreamIO::`vector deleting destructor'
; Function compile flags: /Odt
	.text
.global	??1BStreamIO@@$$FUAE@XZ				; BStreamIO::~BStreamIO
??1BStreamIO@@$$FUAE@XZ:				; BStreamIO::~BStreamIO
;	.proc.def	D:V(I)

; Function Header:
; max stack depth = 2
; function size = 17 bytes
; local varsig tk = 0x0 
; Exception Information:
; 0 handlers, each consisting of filtered handlers

;	.formal.i4 0,"_this$" SIG: Optional C Binding Modifier(token:0x9BAECA).Optional C Binding Modifier(token:0x9BAECC).ptr.valueType (token:0x9BAECF)

;	.proc.beg

; 56   : {

	ldarg.0				; _this$
	ldsflda		??_7BStreamIO@@6B@
	unaligned	1		; u32 0x1
	stind.i4	

; 57   : }

	ldarg.0				; _this$
	call		??1BDataIO@@$$FUAE@XZ
$L6453:
	ret		
 .end ??1BStreamIO@@$$FUAE@XZ				; BStreamIO::~BStreamIO
;	.proc.end.void
text	ENDS
PUBLIC	__mep@??1BStreamIO@@$$FUAE@XZ
;	COMDAT __mep@??1BStreamIO@@$$FUAE@XZ
data	SEGMENT
__mep@??1BStreamIO@@$$FUAE@XZ TOKEN 0600004A
; Function compile flags: /Odt
data	ENDS
;	COMDAT ??1BStreamIO@@UAE@XZ
text	SEGMENT
??1BStreamIO@@UAE@XZ PROC NEAR				; BStreamIO::~BStreamIO, COMDAT
	jmp	DWORD PTR __mep@??1BStreamIO@@$$FUAE@XZ
??1BStreamIO@@UAE@XZ ENDP				; BStreamIO::~BStreamIO
.global	
.global	
	.bss
.local	,4
.local	,4
; Function compile flags: /Odt
	.text
.global	?Read@BStreamIO@@$$FUAEIPAXI@Z			; BStreamIO::Read
?Read@BStreamIO@@$$FUAEIPAXI@Z:				; BStreamIO::Read
;	.proc.def	D:I(III)

; Function Header:
; max stack depth = 1
; function size = 4 bytes
; local varsig tk = 0x0 
; Exception Information:
; 0 handlers, each consisting of filtered handlers


;	.proc.beg

; 62   : 	return (b_size_t)B_ERROR;

	ldc.i.-1	-1		; u32 0xffffffff
	br.s		$L6460
$L6460:

; 63   : }

	ret		
 .end ?Read@BStreamIO@@$$FUAEIPAXI@Z			; BStreamIO::Read
;	.proc.end.u4
text	ENDS
PUBLIC	__mep@?Read@BStreamIO@@$$FUAEIPAXI@Z
;	COMDAT __mep@?Read@BStreamIO@@$$FUAEIPAXI@Z
data	SEGMENT
__mep@?Read@BStreamIO@@$$FUAEIPAXI@Z TOKEN 0600004B
; Function compile flags: /Odt
data	ENDS
;	COMDAT ?Read@BStreamIO@@UAEIPAXI@Z
text	SEGMENT
?Read@BStreamIO@@UAEIPAXI@Z PROC NEAR			; BStreamIO::Read, COMDAT
	jmp	DWORD PTR __mep@?Read@BStreamIO@@$$FUAEIPAXI@Z
?Read@BStreamIO@@UAEIPAXI@Z ENDP			; BStreamIO::Read
.global	
	.bss
.local	,4
; Function compile flags: /Odt
	.text
.global	?Write@BStreamIO@@$$FUAEIPBXI@Z			; BStreamIO::Write
?Write@BStreamIO@@$$FUAEIPBXI@Z:			; BStreamIO::Write
;	.proc.def	D:I(III)

; Function Header:
; max stack depth = 1
; function size = 4 bytes
; local varsig tk = 0x0 
; Exception Information:
; 0 handlers, each consisting of filtered handlers


;	.proc.beg

; 68   : 	return (b_size_t)B_ERROR;

	ldc.i.-1	-1		; u32 0xffffffff
	br.s		$L6469
$L6469:

; 69   : }

	ret		
 .end ?Write@BStreamIO@@$$FUAEIPBXI@Z			; BStreamIO::Write
;	.proc.end.u4
text	ENDS
PUBLIC	__mep@?Write@BStreamIO@@$$FUAEIPBXI@Z
;	COMDAT __mep@?Write@BStreamIO@@$$FUAEIPBXI@Z
data	SEGMENT
__mep@?Write@BStreamIO@@$$FUAEIPBXI@Z TOKEN 0600004C
; Function compile flags: /Odt
data	ENDS
;	COMDAT ?Write@BStreamIO@@UAEIPBXI@Z
text	SEGMENT
?Write@BStreamIO@@UAEIPBXI@Z PROC NEAR			; BStreamIO::Write, COMDAT
	jmp	DWORD PTR __mep@?Write@BStreamIO@@$$FUAEIPBXI@Z
?Write@BStreamIO@@UAEIPBXI@Z ENDP			; BStreamIO::Write
.global	
.global	
	.bss
.local	,4
.local	,4
.local	$SigTok$0303201109080f202d0109,4
.local	$T6498,4
	.rdata
	.comdat	any, __unep@??1BString@@$$FQAE@XZ

__unep@??1BString@@$$FQAE@XZ:
	DD	??1BString@@QAE@XZ
; Function compile flags: /Odt
	.text
.global	??6BStreamIO@@$$FQAEAAV0@D@Z			; BStreamIO::operator<<
??6BStreamIO@@$$FQAEAAV0@D@Z:				; BStreamIO::operator<<
;	.proc.def	D:I(II)

; Function Header:
; max stack depth = 5
; function size = 74 bytes
; local varsig tk = 0x1100000B 
; Exception Information:
; 1 handlers, each consisting of filtered handlers

;	.formal.i1 1,"_value$"
;	.formal.i4 0,"_this$" SIG: Optional C Binding Modifier(token:0x9BAECA).Optional C Binding Modifier(token:0x9BAECC).ptr.valueType (token:0x9BAECF)
;	.local.mb16  1,"_str$" SIG: valueType (token:0x9BBCE2)
;	.local.i4 0,"$T6090" SIG: ptr.valueType (token:0x9BBA87)

;	.proc.beg

; 74   : 	BString str;

	ldloca.s	1		; _str$
	call		??0BString@@$$FQAE@XZ
	pop		
$L6492:

; 75   : 	str << value;

	ldloca.s	1		; _str$
	ldarg.1				; _value$
	call		??6BString@@$$FQAEAAV0@D@Z
	pop		

; 76   : 	Write(str.String(), str.Length());

	ldarg.0				; _this$
	ldloca.s	1		; _str$
	call		?String@BString@@$$FQBEPBDXZ
	ldloca.s	1		; _str$
	call		?Length@BString@@$$FQBEHXZ
	ldarg.0				; _this$
	unaligned	1		; u32 0x1
	ldind.i4	
	ldc.i.8		8		; i32 0x8
	add		
	ldind.i4	
	calli		D:I(III)
	pop		

; 77   : 	return *this;

	ldarg.0				; _this$
	stloc.0				; $T6090
	leave.s		$L6493
$L6494:
	ldsfld		__unep@??1BString@@$$FQAE@XZ
	ldloca.s	1		; _str$
	call		?__CxxCallUnwindDtor@@$$J0YAXP6EXPAX@Z0@Z
	endfinally	
$L6493:
	ldloca.s	1		; _str$
	call		??1BString@@$$FQAE@XZ
	ldloc.0				; $T6090
	br.s		$L6495
$L6495:

; 78   : }

	ret		
 .end ??6BStreamIO@@$$FQAEAAV0@D@Z			; BStreamIO::operator<<
;	.proc.end.i4
text	ENDS
PUBLIC	??6BStreamIO@@QAEAAV0@D@Z			; BStreamIO::operator<<
PUBLIC	__mep@??6BStreamIO@@$$FQAEAAV0@D@Z
;	COMDAT __mep@??6BStreamIO@@$$FQAEAAV0@D@Z
data	SEGMENT
__mep@??6BStreamIO@@$$FQAEAAV0@D@Z TOKEN 0600004D
; Function compile flags: /Odt
data	ENDS
;	COMDAT ??6BStreamIO@@QAEAAV0@D@Z
text	SEGMENT
??6BStreamIO@@QAEAAV0@D@Z PROC NEAR			; BStreamIO::operator<<, COMDAT
	jmp	DWORD PTR __mep@??6BStreamIO@@$$FQAEAAV0@D@Z
??6BStreamIO@@QAEAAV0@D@Z ENDP				; BStreamIO::operator<<
.global	
	.bss
.local	,4
.local	$T6521,4
; Function compile flags: /Odt
	.text
.global	??6BStreamIO@@$$FQAEAAV0@E@Z			; BStreamIO::operator<<
??6BStreamIO@@$$FQAEAAV0@E@Z:				; BStreamIO::operator<<
;	.proc.def	D:I(II)

; Function Header:
; max stack depth = 5
; function size = 74 bytes
; local varsig tk = 0x1100000B 
; Exception Information:
; 1 handlers, each consisting of filtered handlers

;	.formal.u1 1,"_value$"
;	.formal.i4 0,"_this$" SIG: Optional C Binding Modifier(token:0x9BAECA).Optional C Binding Modifier(token:0x9BAECC).ptr.valueType (token:0x9BAECF)
;	.local.mb16  1,"_str$" SIG: valueType (token:0x9BBCE2)
;	.local.i4 0,"$T6098" SIG: ptr.valueType (token:0x9BBA87)

;	.proc.beg

; 84   : 	BString str;

	ldloca.s	1		; _str$
	call		??0BString@@$$FQAE@XZ
	pop		
$L6516:

; 85   : 	str << value;

	ldloca.s	1		; _str$
	ldarg.1				; _value$
	call		??6BString@@$$FQAEAAV0@E@Z
	pop		

; 86   : 	Write(str.String(), str.Length());

	ldarg.0				; _this$
	ldloca.s	1		; _str$
	call		?String@BString@@$$FQBEPBDXZ
	ldloca.s	1		; _str$
	call		?Length@BString@@$$FQBEHXZ
	ldarg.0				; _this$
	unaligned	1		; u32 0x1
	ldind.i4	
	ldc.i.8		8		; i32 0x8
	add		
	ldind.i4	
	calli		D:I(III)
	pop		

; 87   : 	return *this;

	ldarg.0				; _this$
	stloc.0				; $T6098
	leave.s		$L6517
$L6518:
	ldsfld		__unep@??1BString@@$$FQAE@XZ
	ldloca.s	1		; _str$
	call		?__CxxCallUnwindDtor@@$$J0YAXP6EXPAX@Z0@Z
	endfinally	
$L6517:
	ldloca.s	1		; _str$
	call		??1BString@@$$FQAE@XZ
	ldloc.0				; $T6098
	br.s		$L6519
$L6519:

; 88   : }

	ret		
 .end ??6BStreamIO@@$$FQAEAAV0@E@Z			; BStreamIO::operator<<
;	.proc.end.i4
text	ENDS
PUBLIC	??6BStreamIO@@QAEAAV0@E@Z			; BStreamIO::operator<<
PUBLIC	__mep@??6BStreamIO@@$$FQAEAAV0@E@Z
;	COMDAT __mep@??6BStreamIO@@$$FQAEAAV0@E@Z
data	SEGMENT
__mep@??6BStreamIO@@$$FQAEAAV0@E@Z TOKEN 0600004E
; Function compile flags: /Odt
data	ENDS
;	COMDAT ??6BStreamIO@@QAEAAV0@E@Z
text	SEGMENT
??6BStreamIO@@QAEAAV0@E@Z PROC NEAR			; BStreamIO::operator<<, COMDAT
	jmp	DWORD PTR __mep@??6BStreamIO@@$$FQAEAAV0@E@Z
??6BStreamIO@@QAEAAV0@E@Z ENDP				; BStreamIO::operator<<
.global	
	.bss
.local	,4
.local	$T6544,4
; Function compile flags: /Odt
	.text
.global	??6BStreamIO@@$$FQAEAAV0@F@Z			; BStreamIO::operator<<
??6BStreamIO@@$$FQAEAAV0@F@Z:				; BStreamIO::operator<<
;	.proc.def	D:I(II)

; Function Header:
; max stack depth = 5
; function size = 74 bytes
; local varsig tk = 0x1100000B 
; Exception Information:
; 1 handlers, each consisting of filtered handlers

;	.formal.i2 1,"_value$"
;	.formal.i4 0,"_this$" SIG: Optional C Binding Modifier(token:0x9BAECA).Optional C Binding Modifier(token:0x9BAECC).ptr.valueType (token:0x9BAECF)
;	.local.mb16  1,"_str$" SIG: valueType (token:0x9BBCE2)
;	.local.i4 0,"$T6104" SIG: ptr.valueType (token:0x9BBA87)

;	.proc.beg

; 94   : 	BString str;

	ldloca.s	1		; _str$
	call		??0BString@@$$FQAE@XZ
	pop		
$L6539:

; 95   : 	str << value;

	ldloca.s	1		; _str$
	ldarg.1				; _value$
	call		??6BString@@$$FQAEAAV0@F@Z
	pop		

; 96   : 	Write(str.String(), str.Length());

	ldarg.0				; _this$
	ldloca.s	1		; _str$
	call		?String@BString@@$$FQBEPBDXZ
	ldloca.s	1		; _str$
	call		?Length@BString@@$$FQBEHXZ
	ldarg.0				; _this$
	unaligned	1		; u32 0x1
	ldind.i4	
	ldc.i.8		8		; i32 0x8
	add		
	ldind.i4	
	calli		D:I(III)
	pop		

; 97   : 	return *this;

	ldarg.0				; _this$
	stloc.0				; $T6104
	leave.s		$L6540
$L6541:
	ldsfld		__unep@??1BString@@$$FQAE@XZ
	ldloca.s	1		; _str$
	call		?__CxxCallUnwindDtor@@$$J0YAXP6EXPAX@Z0@Z
	endfinally	
$L6540:
	ldloca.s	1		; _str$
	call		??1BString@@$$FQAE@XZ
	ldloc.0				; $T6104
	br.s		$L6542
$L6542:

; 98   : }

	ret		
 .end ??6BStreamIO@@$$FQAEAAV0@F@Z			; BStreamIO::operator<<
;	.proc.end.i4
text	ENDS
PUBLIC	??6BStreamIO@@QAEAAV0@F@Z			; BStreamIO::operator<<
PUBLIC	__mep@??6BStreamIO@@$$FQAEAAV0@F@Z
;	COMDAT __mep@??6BStreamIO@@$$FQAEAAV0@F@Z
data	SEGMENT
__mep@??6BStreamIO@@$$FQAEAAV0@F@Z TOKEN 0600004F
; Function compile flags: /Odt
data	ENDS
;	COMDAT ??6BStreamIO@@QAEAAV0@F@Z
text	SEGMENT
??6BStreamIO@@QAEAAV0@F@Z PROC NEAR			; BStreamIO::operator<<, COMDAT
	jmp	DWORD PTR __mep@??6BStreamIO@@$$FQAEAAV0@F@Z
??6BStreamIO@@QAEAAV0@F@Z ENDP				; BStreamIO::operator<<
.global	
	.bss
.local	,4
.local	$T6567,4
; Function compile flags: /Odt
	.text
.global	??6BStreamIO@@$$FQAEAAV0@G@Z			; BStreamIO::operator<<
??6BStreamIO@@$$FQAEAAV0@G@Z:				; BStreamIO::operator<<
;	.proc.def	D:I(II)

; Function Header:
; max stack depth = 5
; function size = 74 bytes
; local varsig tk = 0x1100000B 
; Exception Information:
; 1 handlers, each consisting of filtered handlers

;	.formal.u2 1,"_value$"
;	.formal.i4 0,"_this$" SIG: Optional C Binding Modifier(token:0x9BAECA).Optional C Binding Modifier(token:0x9BAECC).ptr.valueType (token:0x9BAECF)
;	.local.mb16  1,"_str$" SIG: valueType (token:0x9BBCE2)
;	.local.i4 0,"$T6110" SIG: ptr.valueType (token:0x9BBA87)

;	.proc.beg

; 104  : 	BString str;

	ldloca.s	1		; _str$
	call		??0BString@@$$FQAE@XZ
	pop		
$L6562:

; 105  : 	str << value;

	ldloca.s	1		; _str$
	ldarg.1				; _value$
	call		??6BString@@$$FQAEAAV0@G@Z
	pop		

; 106  : 	Write(str.String(), str.Length());

	ldarg.0				; _this$
	ldloca.s	1		; _str$
	call		?String@BString@@$$FQBEPBDXZ
	ldloca.s	1		; _str$
	call		?Length@BString@@$$FQBEHXZ
	ldarg.0				; _this$
	unaligned	1		; u32 0x1
	ldind.i4	
	ldc.i.8		8		; i32 0x8
	add		
	ldind.i4	
	calli		D:I(III)
	pop		

; 107  : 	return *this;

	ldarg.0				; _this$
	stloc.0				; $T6110
	leave.s		$L6563
$L6564:
	ldsfld		__unep@??1BString@@$$FQAE@XZ
	ldloca.s	1		; _str$
	call		?__CxxCallUnwindDtor@@$$J0YAXP6EXPAX@Z0@Z
	endfinally	
$L6563:
	ldloca.s	1		; _str$
	call		??1BString@@$$FQAE@XZ
	ldloc.0				; $T6110
	br.s		$L6565
$L6565:

; 108  : }

	ret		
 .end ??6BStreamIO@@$$FQAEAAV0@G@Z			; BStreamIO::operator<<
;	.proc.end.i4
text	ENDS
PUBLIC	??6BStreamIO@@QAEAAV0@G@Z			; BStreamIO::operator<<
PUBLIC	__mep@??6BStreamIO@@$$FQAEAAV0@G@Z
;	COMDAT __mep@??6BStreamIO@@$$FQAEAAV0@G@Z
data	SEGMENT
__mep@??6BStreamIO@@$$FQAEAAV0@G@Z TOKEN 06000050
; Function compile flags: /Odt
data	ENDS
;	COMDAT ??6BStreamIO@@QAEAAV0@G@Z
text	SEGMENT
??6BStreamIO@@QAEAAV0@G@Z PROC NEAR			; BStreamIO::operator<<, COMDAT
	jmp	DWORD PTR __mep@??6BStreamIO@@$$FQAEAAV0@G@Z
??6BStreamIO@@QAEAAV0@G@Z ENDP				; BStreamIO::operator<<
.global	
	.bss
.local	,4
.local	$T6590,4
; Function compile flags: /Odt
	.text
.global	??6BStreamIO@@$$FQAEAAV0@H@Z			; BStreamIO::operator<<
??6BStreamIO@@$$FQAEAAV0@H@Z:				; BStreamIO::operator<<
;	.proc.def	D:I(II)

; Function Header:
; max stack depth = 5
; function size = 74 bytes
; local varsig tk = 0x1100000B 
; Exception Information:
; 1 handlers, each consisting of filtered handlers

;	.formal.i4 1,"_value$"
;	.formal.i4 0,"_this$" SIG: Optional C Binding Modifier(token:0x9BAECA).Optional C Binding Modifier(token:0x9BAECC).ptr.valueType (token:0x9BAECF)
;	.local.mb16  1,"_str$" SIG: valueType (token:0x9BBCE2)
;	.local.i4 0,"$T6116" SIG: ptr.valueType (token:0x9BBA87)

;	.proc.beg

; 114  : 	BString str;

	ldloca.s	1		; _str$
	call		??0BString@@$$FQAE@XZ
	pop		
$L6585:

; 115  : 	str << value;

	ldloca.s	1		; _str$
	ldarg.1				; _value$
	call		??6BString@@$$FQAEAAV0@H@Z
	pop		

; 116  : 	Write(str.String(), str.Length());

	ldarg.0				; _this$
	ldloca.s	1		; _str$
	call		?String@BString@@$$FQBEPBDXZ
	ldloca.s	1		; _str$
	call		?Length@BString@@$$FQBEHXZ
	ldarg.0				; _this$
	unaligned	1		; u32 0x1
	ldind.i4	
	ldc.i.8		8		; i32 0x8
	add		
	ldind.i4	
	calli		D:I(III)
	pop		

; 117  : 	return *this;

	ldarg.0				; _this$
	stloc.0				; $T6116
	leave.s		$L6586
$L6587:
	ldsfld		__unep@??1BString@@$$FQAE@XZ
	ldloca.s	1		; _str$
	call		?__CxxCallUnwindDtor@@$$J0YAXP6EXPAX@Z0@Z
	endfinally	
$L6586:
	ldloca.s	1		; _str$
	call		??1BString@@$$FQAE@XZ
	ldloc.0				; $T6116
	br.s		$L6588
$L6588:

; 118  : }

	ret		
 .end ??6BStreamIO@@$$FQAEAAV0@H@Z			; BStreamIO::operator<<
;	.proc.end.i4
text	ENDS
PUBLIC	??6BStreamIO@@QAEAAV0@H@Z			; BStreamIO::operator<<
PUBLIC	__mep@??6BStreamIO@@$$FQAEAAV0@H@Z
;	COMDAT __mep@??6BStreamIO@@$$FQAEAAV0@H@Z
data	SEGMENT
__mep@??6BStreamIO@@$$FQAEAAV0@H@Z TOKEN 06000051
; Function compile flags: /Odt
data	ENDS
;	COMDAT ??6BStreamIO@@QAEAAV0@H@Z
text	SEGMENT
??6BStreamIO@@QAEAAV0@H@Z PROC NEAR			; BStreamIO::operator<<, COMDAT
	jmp	DWORD PTR __mep@??6BStreamIO@@$$FQAEAAV0@H@Z
??6BStreamIO@@QAEAAV0@H@Z ENDP				; BStreamIO::operator<<
	.bss
.local	$T6612,4
; Function compile flags: /Odt
	.text
.global	??6BStreamIO@@$$FQAEAAV0@I@Z			; BStreamIO::operator<<
??6BStreamIO@@$$FQAEAAV0@I@Z:				; BStreamIO::operator<<
;	.proc.def	D:I(II)

; Function Header:
; max stack depth = 5
; function size = 74 bytes
; local varsig tk = 0x1100000B 
; Exception Information:
; 1 handlers, each consisting of filtered handlers

;	.formal.u4 1,"_value$"
;	.formal.i4 0,"_this$" SIG: Optional C Binding Modifier(token:0x9BAECA).Optional C Binding Modifier(token:0x9BAECC).ptr.valueType (token:0x9BAECF)
;	.local.mb16  1,"_str$" SIG: valueType (token:0x9BBCE2)
;	.local.i4 0,"$T6122" SIG: ptr.valueType (token:0x9BBA87)

;	.proc.beg

; 124  : 	BString str;

	ldloca.s	1		; _str$
	call		??0BString@@$$FQAE@XZ
	pop		
$L6608:

; 125  : 	str << value;

	ldloca.s	1		; _str$
	ldarg.1				; _value$
	call		??6BString@@$$FQAEAAV0@I@Z
	pop		

; 126  : 	Write(str.String(), str.Length());

	ldarg.0				; _this$
	ldloca.s	1		; _str$
	call		?String@BString@@$$FQBEPBDXZ
	ldloca.s	1		; _str$
	call		?Length@BString@@$$FQBEHXZ
	ldarg.0				; _this$
	unaligned	1		; u32 0x1
	ldind.i4	
	ldc.i.8		8		; i32 0x8
	add		
	ldind.i4	
	calli		D:I(III)
	pop		

; 127  : 	return *this;

	ldarg.0				; _this$
	stloc.0				; $T6122
	leave.s		$L6609
$L6610:
	ldsfld		__unep@??1BString@@$$FQAE@XZ
	ldloca.s	1		; _str$
	call		?__CxxCallUnwindDtor@@$$J0YAXP6EXPAX@Z0@Z
	endfinally	
$L6609:
	ldloca.s	1		; _str$
	call		??1BString@@$$FQAE@XZ
	ldloc.0				; $T6122
	br.s		$L6611
$L6611:

; 128  : }

	ret		
 .end ??6BStreamIO@@$$FQAEAAV0@I@Z			; BStreamIO::operator<<
;	.proc.end.i4
text	ENDS
PUBLIC	??6BStreamIO@@QAEAAV0@I@Z			; BStreamIO::operator<<
PUBLIC	__mep@??6BStreamIO@@$$FQAEAAV0@I@Z
;	COMDAT __mep@??6BStreamIO@@$$FQAEAAV0@I@Z
data	SEGMENT
__mep@??6BStreamIO@@$$FQAEAAV0@I@Z TOKEN 06000052
; Function compile flags: /Odt
data	ENDS
;	COMDAT ??6BStreamIO@@QAEAAV0@I@Z
text	SEGMENT
??6BStreamIO@@QAEAAV0@I@Z PROC NEAR			; BStreamIO::operator<<, COMDAT
	jmp	DWORD PTR __mep@??6BStreamIO@@$$FQAEAAV0@I@Z
??6BStreamIO@@QAEAAV0@I@Z ENDP				; BStreamIO::operator<<
.global	
	.bss
.local	,4
.local	$T6635,4
; Function compile flags: /Odt
	.text
.global	??6BStreamIO@@$$FQAEAAV0@_J@Z			; BStreamIO::operator<<
??6BStreamIO@@$$FQAEAAV0@_J@Z:				; BStreamIO::operator<<
;	.proc.def	D:I(IJ)

; Function Header:
; max stack depth = 5
; function size = 74 bytes
; local varsig tk = 0x1100000B 
; Exception Information:
; 1 handlers, each consisting of filtered handlers

;	.formal.i8 1,"_value$"
;	.formal.i4 0,"_this$" SIG: Optional C Binding Modifier(token:0x9BAECA).Optional C Binding Modifier(token:0x9BAECC).ptr.valueType (token:0x9BAECF)
;	.local.mb16  1,"_str$" SIG: valueType (token:0x9BBCE2)
;	.local.i4 0,"$T6128" SIG: ptr.valueType (token:0x9BBA87)

;	.proc.beg

; 134  : 	BString str;

	ldloca.s	1		; _str$
	call		??0BString@@$$FQAE@XZ
	pop		
$L6630:

; 135  : 	str << value;

	ldloca.s	1		; _str$
	ldarg.1				; _value$
	call		??6BString@@$$FQAEAAV0@_J@Z
	pop		

; 136  : 	Write(str.String(), str.Length());

	ldarg.0				; _this$
	ldloca.s	1		; _str$
	call		?String@BString@@$$FQBEPBDXZ
	ldloca.s	1		; _str$
	call		?Length@BString@@$$FQBEHXZ
	ldarg.0				; _this$
	unaligned	1		; u32 0x1
	ldind.i4	
	ldc.i.8		8		; i32 0x8
	add		
	ldind.i4	
	calli		D:I(III)
	pop		

; 137  : 	return *this;

	ldarg.0				; _this$
	stloc.0				; $T6128
	leave.s		$L6631
$L6632:
	ldsfld		__unep@??1BString@@$$FQAE@XZ
	ldloca.s	1		; _str$
	call		?__CxxCallUnwindDtor@@$$J0YAXP6EXPAX@Z0@Z
	endfinally	
$L6631:
	ldloca.s	1		; _str$
	call		??1BString@@$$FQAE@XZ
	ldloc.0				; $T6128
	br.s		$L6633
$L6633:

; 138  : }

	ret		
 .end ??6BStreamIO@@$$FQAEAAV0@_J@Z			; BStreamIO::operator<<
;	.proc.end.i4
text	ENDS
PUBLIC	??6BStreamIO@@QAEAAV0@_J@Z			; BStreamIO::operator<<
PUBLIC	__mep@??6BStreamIO@@$$FQAEAAV0@_J@Z
;	COMDAT __mep@??6BStreamIO@@$$FQAEAAV0@_J@Z
data	SEGMENT
__mep@??6BStreamIO@@$$FQAEAAV0@_J@Z TOKEN 06000053
; Function compile flags: /Odt
data	ENDS
;	COMDAT ??6BStreamIO@@QAEAAV0@_J@Z
text	SEGMENT
??6BStreamIO@@QAEAAV0@_J@Z PROC NEAR			; BStreamIO::operator<<, COMDAT
	jmp	DWORD PTR __mep@??6BStreamIO@@$$FQAEAAV0@_J@Z
??6BStreamIO@@QAEAAV0@_J@Z ENDP				; BStreamIO::operator<<
.global	
	.bss
.local	,4
.local	$T6658,4
; Function compile flags: /Odt
	.text
.global	??6BStreamIO@@$$FQAEAAV0@_K@Z			; BStreamIO::operator<<
??6BStreamIO@@$$FQAEAAV0@_K@Z:				; BStreamIO::operator<<
;	.proc.def	D:I(IJ)

; Function Header:
; max stack depth = 5
; function size = 74 bytes
; local varsig tk = 0x1100000B 
; Exception Information:
; 1 handlers, each consisting of filtered handlers

;	.formal.u8 1,"_value$"
;	.formal.i4 0,"_this$" SIG: Optional C Binding Modifier(token:0x9BAECA).Optional C Binding Modifier(token:0x9BAECC).ptr.valueType (token:0x9BAECF)
;	.local.mb16  1,"_str$" SIG: valueType (token:0x9BBCE2)
;	.local.i4 0,"$T6134" SIG: ptr.valueType (token:0x9BBA87)

;	.proc.beg

; 144  : 	BString str;

	ldloca.s	1		; _str$
	call		??0BString@@$$FQAE@XZ
	pop		
$L6653:

; 145  : 	str << value;

	ldloca.s	1		; _str$
	ldarg.1				; _value$
	call		??6BString@@$$FQAEAAV0@_K@Z
	pop		

; 146  : 	Write(str.String(), str.Length());

	ldarg.0				; _this$
	ldloca.s	1		; _str$
	call		?String@BString@@$$FQBEPBDXZ
	ldloca.s	1		; _str$
	call		?Length@BString@@$$FQBEHXZ
	ldarg.0				; _this$
	unaligned	1		; u32 0x1
	ldind.i4	
	ldc.i.8		8		; i32 0x8
	add		
	ldind.i4	
	calli		D:I(III)
	pop		

; 147  : 	return *this;

	ldarg.0				; _this$
	stloc.0				; $T6134
	leave.s		$L6654
$L6655:
	ldsfld		__unep@??1BString@@$$FQAE@XZ
	ldloca.s	1		; _str$
	call		?__CxxCallUnwindDtor@@$$J0YAXP6EXPAX@Z0@Z
	endfinally	
$L6654:
	ldloca.s	1		; _str$
	call		??1BString@@$$FQAE@XZ
	ldloc.0				; $T6134
	br.s		$L6656
$L6656:

; 148  : }

	ret		
 .end ??6BStreamIO@@$$FQAEAAV0@_K@Z			; BStreamIO::operator<<
;	.proc.end.i4
text	ENDS
PUBLIC	??6BStreamIO@@QAEAAV0@_K@Z			; BStreamIO::operator<<
PUBLIC	__mep@??6BStreamIO@@$$FQAEAAV0@_K@Z
;	COMDAT __mep@??6BStreamIO@@$$FQAEAAV0@_K@Z
data	SEGMENT
__mep@??6BStreamIO@@$$FQAEAAV0@_K@Z TOKEN 06000054
; Function compile flags: /Odt
data	ENDS
;	COMDAT ??6BStreamIO@@QAEAAV0@_K@Z
text	SEGMENT
??6BStreamIO@@QAEAAV0@_K@Z PROC NEAR			; BStreamIO::operator<<, COMDAT
	jmp	DWORD PTR __mep@??6BStreamIO@@$$FQAEAAV0@_K@Z
??6BStreamIO@@QAEAAV0@_K@Z ENDP				; BStreamIO::operator<<
.global	
	.bss
.local	,4
.local	$T6681,4
; Function compile flags: /Odt
	.text
.global	??6BStreamIO@@$$FQAEAAV0@M@Z			; BStreamIO::operator<<
??6BStreamIO@@$$FQAEAAV0@M@Z:				; BStreamIO::operator<<
;	.proc.def	D:I(IR)

; Function Header:
; max stack depth = 5
; function size = 74 bytes
; local varsig tk = 0x1100000B 
; Exception Information:
; 1 handlers, each consisting of filtered handlers

;	.formal.r4 1,"_value$"
;	.formal.i4 0,"_this$" SIG: Optional C Binding Modifier(token:0x9BAECA).Optional C Binding Modifier(token:0x9BAECC).ptr.valueType (token:0x9BAECF)
;	.local.mb16  1,"_str$" SIG: valueType (token:0x9BBCE2)
;	.local.i4 0,"$T6140" SIG: ptr.valueType (token:0x9BBA87)

;	.proc.beg

; 154  : 	BString str;

	ldloca.s	1		; _str$
	call		??0BString@@$$FQAE@XZ
	pop		
$L6676:

; 155  : 	str << value;

	ldloca.s	1		; _str$
	ldarg.1				; _value$
	call		??6BString@@$$FQAEAAV0@M@Z
	pop		

; 156  : 	Write(str.String(), str.Length());

	ldarg.0				; _this$
	ldloca.s	1		; _str$
	call		?String@BString@@$$FQBEPBDXZ
	ldloca.s	1		; _str$
	call		?Length@BString@@$$FQBEHXZ
	ldarg.0				; _this$
	unaligned	1		; u32 0x1
	ldind.i4	
	ldc.i.8		8		; i32 0x8
	add		
	ldind.i4	
	calli		D:I(III)
	pop		

; 157  : 	return *this;

	ldarg.0				; _this$
	stloc.0				; $T6140
	leave.s		$L6677
$L6678:
	ldsfld		__unep@??1BString@@$$FQAE@XZ
	ldloca.s	1		; _str$
	call		?__CxxCallUnwindDtor@@$$J0YAXP6EXPAX@Z0@Z
	endfinally	
$L6677:
	ldloca.s	1		; _str$
	call		??1BString@@$$FQAE@XZ
	ldloc.0				; $T6140
	br.s		$L6679
$L6679:

; 158  : }

	ret		
 .end ??6BStreamIO@@$$FQAEAAV0@M@Z			; BStreamIO::operator<<
;	.proc.end.i4
text	ENDS
PUBLIC	??6BStreamIO@@QAEAAV0@M@Z			; BStreamIO::operator<<
PUBLIC	__mep@??6BStreamIO@@$$FQAEAAV0@M@Z
;	COMDAT __mep@??6BStreamIO@@$$FQAEAAV0@M@Z
data	SEGMENT
__mep@??6BStreamIO@@$$FQAEAAV0@M@Z TOKEN 06000055
; Function compile flags: /Odt
data	ENDS
;	COMDAT ??6BStreamIO@@QAEAAV0@M@Z
text	SEGMENT
??6BStreamIO@@QAEAAV0@M@Z PROC NEAR			; BStreamIO::operator<<, COMDAT
	jmp	DWORD PTR __mep@??6BStreamIO@@$$FQAEAAV0@M@Z
??6BStreamIO@@QAEAAV0@M@Z ENDP				; BStreamIO::operator<<
.global	
	.bss
.local	,4
.local	$T6705,4
; Function compile flags: /Odt
	.text
.global	??6BStreamIO@@$$FQAEAAV0@N@Z			; BStreamIO::operator<<
??6BStreamIO@@$$FQAEAAV0@N@Z:				; BStreamIO::operator<<
;	.proc.def	D:I(ID)

; Function Header:
; max stack depth = 5
; function size = 74 bytes
; local varsig tk = 0x1100000B 
; Exception Information:
; 1 handlers, each consisting of filtered handlers

;	.formal.r8 1,"_value$"
;	.formal.i4 0,"_this$" SIG: Optional C Binding Modifier(token:0x9BAECA).Optional C Binding Modifier(token:0x9BAECC).ptr.valueType (token:0x9BAECF)
;	.local.mb16  1,"_str$" SIG: valueType (token:0x9BBCE2)
;	.local.i4 0,"$T6146" SIG: ptr.valueType (token:0x9BBA87)

;	.proc.beg

; 164  : 	BString str;

	ldloca.s	1		; _str$
	call		??0BString@@$$FQAE@XZ
	pop		
$L6700:

; 165  : 	str << value;

	ldloca.s	1		; _str$
	ldarg.1				; _value$
	call		??6BString@@$$FQAEAAV0@N@Z
	pop		

; 166  : 	Write(str.String(), str.Length());

	ldarg.0				; _this$
	ldloca.s	1		; _str$
	call		?String@BString@@$$FQBEPBDXZ
	ldloca.s	1		; _str$
	call		?Length@BString@@$$FQBEHXZ
	ldarg.0				; _this$
	unaligned	1		; u32 0x1
	ldind.i4	
	ldc.i.8		8		; i32 0x8
	add		
	ldind.i4	
	calli		D:I(III)
	pop		

; 167  : 	return *this;

	ldarg.0				; _this$
	stloc.0				; $T6146
	leave.s		$L6701
$L6702:
	ldsfld		__unep@??1BString@@$$FQAE@XZ
	ldloca.s	1		; _str$
	call		?__CxxCallUnwindDtor@@$$J0YAXP6EXPAX@Z0@Z
	endfinally	
$L6701:
	ldloca.s	1		; _str$
	call		??1BString@@$$FQAE@XZ
	ldloc.0				; $T6146
	br.s		$L6703
$L6703:

; 168  : }

	ret		
 .end ??6BStreamIO@@$$FQAEAAV0@N@Z			; BStreamIO::operator<<
;	.proc.end.i4
text	ENDS
PUBLIC	??6BStreamIO@@QAEAAV0@N@Z			; BStreamIO::operator<<
PUBLIC	__mep@??6BStreamIO@@$$FQAEAAV0@N@Z
;	COMDAT __mep@??6BStreamIO@@$$FQAEAAV0@N@Z
data	SEGMENT
__mep@??6BStreamIO@@$$FQAEAAV0@N@Z TOKEN 06000056
; Function compile flags: /Odt
data	ENDS
;	COMDAT ??6BStreamIO@@QAEAAV0@N@Z
text	SEGMENT
??6BStreamIO@@QAEAAV0@N@Z PROC NEAR			; BStreamIO::operator<<, COMDAT
	jmp	DWORD PTR __mep@??6BStreamIO@@$$FQAEAAV0@N@Z
??6BStreamIO@@QAEAAV0@N@Z ENDP				; BStreamIO::operator<<
	.bss
.local	$VarArgTok$1$0503200920310f114d202d202d0f114d0f202d203504410f202d01,4
.local	$T6727,4
; Function compile flags: /Odt
	.text
.global	??6BStreamIO@@$$FQAEAAV0@PBX@Z			; BStreamIO::operator<<
??6BStreamIO@@$$FQAEAAV0@PBX@Z:				; BStreamIO::operator<<
;	.proc.def	D:I(II)

; Function Header:
; max stack depth = 5
; function size = 79 bytes
; local varsig tk = 0x1100000B 
; Exception Information:
; 1 handlers, each consisting of filtered handlers

;	.formal.i4 1,"_value$" SIG: ptr.Optional C Binding Modifier(token:0x9B9C0B).void
;	.formal.i4 0,"_this$" SIG: Optional C Binding Modifier(token:0x9BAECA).Optional C Binding Modifier(token:0x9BAECC).ptr.valueType (token:0x9BAECF)
;	.local.mb16  1,"_str$" SIG: valueType (token:0x9BBCE2)
;	.local.i4 0,"$T6155" SIG: ptr.valueType (token:0x9BBA87)

;	.proc.beg

; 174  : 	BString str;

	ldloca.s	1		; _str$
	call		??0BString@@$$FQAE@XZ
	pop		
$L6723:

; 175  : 	str.AppendFormat("%p", value);

	ldloca.s	1		; _str$
	ldsflda		$SG6153
	ldarg.1				; _value$
	call		?AppendFormat@BString@@$$FQAAAAV1@PBDZZ
	pop		

; 176  : 	Write(str.String(), str.Length());

	ldarg.0				; _this$
	ldloca.s	1		; _str$
	call		?String@BString@@$$FQBEPBDXZ
	ldloca.s	1		; _str$
	call		?Length@BString@@$$FQBEHXZ
	ldarg.0				; _this$
	unaligned	1		; u32 0x1
	ldind.i4	
	ldc.i.8		8		; i32 0x8
	add		
	ldind.i4	
	calli		D:I(III)
	pop		

; 177  : 	return *this;

	ldarg.0				; _this$
	stloc.0				; $T6155
	leave.s		$L6724
$L6725:
	ldsfld		__unep@??1BString@@$$FQAE@XZ
	ldloca.s	1		; _str$
	call		?__CxxCallUnwindDtor@@$$J0YAXP6EXPAX@Z0@Z
	endfinally	
$L6724:
	ldloca.s	1		; _str$
	call		??1BString@@$$FQAE@XZ
	ldloc.0				; $T6155
	br.s		$L6726
$L6726:

; 178  : }

	ret		
 .end ??6BStreamIO@@$$FQAEAAV0@PBX@Z			; BStreamIO::operator<<
;	.proc.end.i4
text	ENDS
PUBLIC	??6BStreamIO@@QAEAAV0@PBX@Z			; BStreamIO::operator<<
PUBLIC	__mep@??6BStreamIO@@$$FQAEAAV0@PBX@Z
;	COMDAT __mep@??6BStreamIO@@$$FQAEAAV0@PBX@Z
data	SEGMENT
__mep@??6BStreamIO@@$$FQAEAAV0@PBX@Z TOKEN 06000057
; Function compile flags: /Odt
data	ENDS
;	COMDAT ??6BStreamIO@@QAEAAV0@PBX@Z
text	SEGMENT
??6BStreamIO@@QAEAAV0@PBX@Z PROC NEAR			; BStreamIO::operator<<, COMDAT
	jmp	DWORD PTR __mep@??6BStreamIO@@$$FQAEAAV0@PBX@Z
??6BStreamIO@@QAEAAV0@PBX@Z ENDP			; BStreamIO::operator<<
.global	
	.bss
.local	,4
.local	$T6744,4
; Function compile flags: /Odt
	.text
.global	??6BStreamIO@@$$FQAEAAV0@_N@Z			; BStreamIO::operator<<
??6BStreamIO@@$$FQAEAAV0@_N@Z:				; BStreamIO::operator<<
;	.proc.def	D:I(II)

; Function Header:
; max stack depth = 2
; function size = 27 bytes
; local varsig tk = 0x11000015 
; Exception Information:
; 0 handlers, each consisting of filtered handlers

;	.formal.u1 1,"_value$" SIG: bool
;	.formal.i4 0,"_this$" SIG: Optional C Binding Modifier(token:0x9BAECA).Optional C Binding Modifier(token:0x9BAECC).ptr.valueType (token:0x9BAECF)
;	.local.i4 0,"$T6741" SIG: ptr.Optional C Binding Modifier(token:0xA295BB).Optional C Binding Modifier(token:0xA295BD).i1

;	.proc.beg

; 184  : 	return operator<<(value ? "ture" : "false");

	ldarg.1				; _value$
	brfalse.s	$L6731
	ldsflda		$SG6160
	stloc.0				; $T6741
	br.s		$L6732
$L6731:
	ldsflda		$SG6162
	stloc.0				; $T6741
$L6732:
	ldarg.0				; _this$
	ldloc.0				; $T6741
	call		??6BStreamIO@@$$FQAEAAV0@PBD@Z
	br.s		$L6742
$L6742:

; 185  : }

	ret		
 .end ??6BStreamIO@@$$FQAEAAV0@_N@Z			; BStreamIO::operator<<
;	.proc.end.i4
text	ENDS
PUBLIC	??6BStreamIO@@QAEAAV0@_N@Z			; BStreamIO::operator<<
PUBLIC	__mep@??6BStreamIO@@$$FQAEAAV0@_N@Z
;	COMDAT __mep@??6BStreamIO@@$$FQAEAAV0@_N@Z
data	SEGMENT
__mep@??6BStreamIO@@$$FQAEAAV0@_N@Z TOKEN 06000058
; Function compile flags: /Odt
data	ENDS
;	COMDAT ??6BStreamIO@@QAEAAV0@_N@Z
text	SEGMENT
??6BStreamIO@@QAEAAV0@_N@Z PROC NEAR			; BStreamIO::operator<<, COMDAT
	jmp	DWORD PTR __mep@??6BStreamIO@@$$FQAEAAV0@_N@Z
??6BStreamIO@@QAEAAV0@_N@Z ENDP				; BStreamIO::operator<<
.global	
	.bss
.local	,4
; Function compile flags: /Odt
	.text
.global	??6BStreamIO@@$$FQAEAAV0@PBD@Z			; BStreamIO::operator<<
??6BStreamIO@@$$FQAEAAV0@PBD@Z:				; BStreamIO::operator<<
;	.proc.def	D:I(II)

; Function Header:
; max stack depth = 5
; function size = 33 bytes
; local varsig tk = 0x0 
; Exception Information:
; 0 handlers, each consisting of filtered handlers

;	.formal.i4 1,"_str$" SIG: ptr.Optional C Binding Modifier(token:0x9B80FB).Optional C Binding Modifier(token:0x9B80FD).i1
;	.formal.i4 0,"_this$" SIG: Optional C Binding Modifier(token:0x9BAECA).Optional C Binding Modifier(token:0x9BAECC).ptr.valueType (token:0x9BAECF)

;	.proc.beg

; 191  : 	if(!(str == NULL || *str == 0)) Write(str, strlen(str));

	ldarg.1				; _str$
	brfalse.s	$L6169
	ldarg.1				; _str$
	ldind.i1	
	brfalse.s	$L6169
	ldarg.0				; _this$
	ldarg.1				; _str$
	ldarg.1				; _str$
	call		?strlen@@$$J0YAIPBD@Z
	ldarg.0				; _this$
	unaligned	1		; u32 0x1
	ldind.i4	
	ldc.i.8		8		; i32 0x8
	add		
	ldind.i4	
	calli		D:I(III)
	pop		
$L6169:

; 192  : 	return *this;

	ldarg.0				; _this$
	br.s		$L6756
$L6756:

; 193  : }

	ret		
 .end ??6BStreamIO@@$$FQAEAAV0@PBD@Z			; BStreamIO::operator<<
;	.proc.end.i4
text	ENDS
PUBLIC	??6BStreamIO@@QAEAAV0@PBD@Z			; BStreamIO::operator<<
PUBLIC	__mep@??6BStreamIO@@$$FQAEAAV0@PBD@Z
;	COMDAT __mep@??6BStreamIO@@$$FQAEAAV0@PBD@Z
data	SEGMENT
__mep@??6BStreamIO@@$$FQAEAAV0@PBD@Z TOKEN 06000059
; Function compile flags: /Odt
data	ENDS
;	COMDAT ??6BStreamIO@@QAEAAV0@PBD@Z
text	SEGMENT
??6BStreamIO@@QAEAAV0@PBD@Z PROC NEAR			; BStreamIO::operator<<, COMDAT
	jmp	DWORD PTR __mep@??6BStreamIO@@$$FQAEAAV0@PBD@Z
??6BStreamIO@@QAEAAV0@PBD@Z ENDP			; BStreamIO::operator<<
.global	
	.bss
.local	,4
; Function compile flags: /Odt
	.text
.global	??6BStreamIO@@$$FQAEAAV0@ABVBString@@@Z		; BStreamIO::operator<<
??6BStreamIO@@$$FQAEAAV0@ABVBString@@@Z:		; BStreamIO::operator<<
;	.proc.def	D:I(II)

; Function Header:
; max stack depth = 5
; function size = 40 bytes
; local varsig tk = 0x0 
; Exception Information:
; 0 handlers, each consisting of filtered handlers

;	.formal.i4 1,"_str$" SIG: Optional C Binding Modifier(token:0x9BD436).ptr.Optional C Binding Modifier(token:0x9BD439).valueType (token:0x9BD43B)
;	.formal.i4 0,"_this$" SIG: Optional C Binding Modifier(token:0x9BAECA).Optional C Binding Modifier(token:0x9BAECC).ptr.valueType (token:0x9BAECF)

;	.proc.beg

; 199  : 	if(str.Length() > 0) Write(str.String(), str.Length());

	ldarg.1				; _str$
	call		?Length@BString@@$$FQBEHXZ
	ldc.i.0		0		; i32 0x0
	ble.s		$L6174
	ldarg.0				; _this$
	ldarg.1				; _str$
	call		?String@BString@@$$FQBEPBDXZ
	ldarg.1				; _str$
	call		?Length@BString@@$$FQBEHXZ
	ldarg.0				; _this$
	unaligned	1		; u32 0x1
	ldind.i4	
	ldc.i.8		8		; i32 0x8
	add		
	ldind.i4	
	calli		D:I(III)
	pop		
$L6174:

; 200  : 	return *this;

	ldarg.0				; _this$
	br.s		$L6769
$L6769:

; 201  : }

	ret		
 .end ??6BStreamIO@@$$FQAEAAV0@ABVBString@@@Z		; BStreamIO::operator<<
;	.proc.end.i4
text	ENDS
PUBLIC	??6BStreamIO@@QAEAAV0@ABVBString@@@Z		; BStreamIO::operator<<
PUBLIC	__mep@??6BStreamIO@@$$FQAEAAV0@ABVBString@@@Z
;	COMDAT __mep@??6BStreamIO@@$$FQAEAAV0@ABVBString@@@Z
data	SEGMENT
__mep@??6BStreamIO@@$$FQAEAAV0@ABVBString@@@Z TOKEN 0600005A
; Function compile flags: /Odt
data	ENDS
;	COMDAT ??6BStreamIO@@QAEAAV0@ABVBString@@@Z
text	SEGMENT
??6BStreamIO@@QAEAAV0@ABVBString@@@Z PROC NEAR		; BStreamIO::operator<<, COMDAT
	jmp	DWORD PTR __mep@??6BStreamIO@@$$FQAEAAV0@ABVBString@@@Z
??6BStreamIO@@QAEAAV0@ABVBString@@@Z ENDP		; BStreamIO::operator<<
.global	
.global	
	.bss
.local	$SigTok$0303201109080f0109,4
.local	,4
.local	,4
.local	$T6788,4
; Function compile flags: /Odt
	.text
.global	??6BStreamIO@@$$FQAEAAV0@AAV0@@Z		; BStreamIO::operator<<
??6BStreamIO@@$$FQAEAAV0@AAV0@@Z:			; BStreamIO::operator<<
;	.proc.def	D:I(II)

; Function Header:
; max stack depth = 5
; function size = 129 bytes
; local varsig tk = 0x1100001A 
; Exception Information:
; 0 handlers, each consisting of filtered handlers

;	.formal.i4 1,"_stream$" SIG: Optional C Binding Modifier(token:0x9BBE62).ptr.valueType (token:0x9BBE65)
;	.formal.i4 0,"_this$" SIG: Optional C Binding Modifier(token:0x9BAECA).Optional C Binding Modifier(token:0x9BAECC).ptr.valueType (token:0x9BAECF)
;	.local.mb512 2,"_buf$" SIG: valueType (token:0x9BBF6A)
;	.local.u4 0,"_len$"
;	.local.u4 1,"_nWritten$6186"

;	.proc.beg

; 207  : 	if(&stream == &endl || &stream == &ends)

	ldarg.1				; _stream$
	ldsfld		?endl@@3AAVBStreamIO@@A
	beq.s		$L6181
	ldarg.1				; _stream$
	ldsfld		?ends@@3AAVBStreamIO@@A
	bne.un.s	$L6180
$L6181:

; 208  : 		return operator<<(&stream == &endl ? '\n' : ' ');

	ldarg.0				; _this$
	ldarg.1				; _stream$
	ldsfld		?endl@@3AAVBStreamIO@@A
	beq.s		$L6783
	ldc.i4.s	32		; i8 0x20
	br.s		$L6784
$L6783:
	ldc.i4.s	10		; i8 0xa
$L6784:
	call		??6BStreamIO@@$$FQAEAAV0@D@Z
	br.s		$L6785
$L6180:

; 209  : 
; 210  : 	b_int8 buf[512];
; 211  : 	b_size_t len;
; 212  : 
; 213  : 	bzero(buf, sizeof(buf));

	ldloca.s	2		; _buf$
	ldc.i.0		0		; i32 0x0
	ldc.i4		512		; u32 0x200
	call		?memset@@$$J0YAPAXPAXHI@Z
	pop		

; 214  : 	if((len = stream.Read(&buf[0], sizeof(buf))) > 0)

	ldarg.1				; _stream$
	ldloca.s	2		; _buf$
	ldc.i4		512		; u32 0x200
	ldarg.1				; _stream$
	unaligned	1		; u32 0x1
	ldind.i4	
	ldc.i.4		4		; i32 0x4
	add		
	ldind.i4	
	calli		D:I(III)
	stloc.0				; _len$
	ldloc.0				; _len$
	ldc.i.0		0		; u32 0x0
	ble.un.s	$L6185
$L6188:

; 215  : 	{
; 216  : 		b_size_t nWritten;
; 217  : 		while((nWritten = Write(&buf[0], (size_t)len)) > 0)

	ldarg.0				; _this$
	ldloca.s	2		; _buf$
	ldloc.0				; _len$
	ldarg.0				; _this$
	unaligned	1		; u32 0x1
	ldind.i4	
	ldc.i.8		8		; i32 0x8
	add		
	ldind.i4	
	calli		D:I(III)
	stloc.1				; _nWritten$6186
	ldloc.1				; _nWritten$6186
	ldc.i.0		0		; u32 0x0
	ble.un.s	$L6185

; 218  : 		{
; 219  :             if  (len <= nWritten) break;

	ldloc.0				; _len$
	ldloc.1				; _nWritten$6186
	bgt.un.s	$L6191
	br.s		$L6185
$L6191:

; 220  :             else len -= nWritten;

	ldloc.0				; _len$
	ldloc.1				; _nWritten$6186
	sub		
	stloc.0				; _len$

; 221  : //			if(len - nWritten == 0 || (len -= nWritten) < 0) break; size_t is unsigned! cant be < 0
; 222  : 			memmove(&buf[0], &buf[nWritten], (size_t)len);

	ldloca.s	2		; _buf$
	ldloca.s	2		; _buf$
	ldloc.1				; _nWritten$6186
	add		
	ldloc.0				; _len$
	call		?memmove@@$$J0YAPAXPAXPBXI@Z
	pop		

; 223  : 		}

	br.s		$L6188
$L6185:

; 224  : 	}
; 225  : 
; 226  : 	return *this;

	ldarg.0				; _this$
	br.s		$L6785
$L6785:

; 227  : }

	ret		
 .end ??6BStreamIO@@$$FQAEAAV0@AAV0@@Z			; BStreamIO::operator<<
;	.proc.end.i4
text	ENDS
PUBLIC	??6BStreamIO@@QAEAAV0@AAV0@@Z			; BStreamIO::operator<<
PUBLIC	__mep@??6BStreamIO@@$$FQAEAAV0@AAV0@@Z
;	COMDAT __mep@??6BStreamIO@@$$FQAEAAV0@AAV0@@Z
data	SEGMENT
__mep@??6BStreamIO@@$$FQAEAAV0@AAV0@@Z TOKEN 0600005B
; Function compile flags: /Odt
data	ENDS
;	COMDAT ??6BStreamIO@@QAEAAV0@AAV0@@Z
text	SEGMENT
??6BStreamIO@@QAEAAV0@AAV0@@Z PROC NEAR			; BStreamIO::operator<<, COMDAT
	jmp	DWORD PTR __mep@??6BStreamIO@@$$FQAEAAV0@AAV0@@Z
??6BStreamIO@@QAEAAV0@AAV0@@Z ENDP			; BStreamIO::operator<<
.global	__unep@?$E2@?A0x358b314b@@$$FYAXXZ
	.CRT$XCU

_$S3:
	DD	?$E1@?A0x358b314b@@YAXXZ
	.rdata
	.comdat	any, __unep@?$E2@?A0x358b314b@@$$FYAXXZ

__unep@?$E2@?A0x358b314b@@$$FYAXXZ:
	DD	?$E2@?A0x358b314b@@YAXXZ
; Function compile flags: /Odt
	.textseg	.text$yc
	.comdat	any, ?$E1@?A0x358b314b@@$$FYAXXZ
.global	?$E1@?A0x358b314b@@$$FYAXXZ			; `anonymous namespace'::$E1
?$E1@?A0x358b314b@@$$FYAXXZ:				; `anonymous namespace'::$E1
;	.proc.def	D:V()

; Function Header:
; max stack depth = 1
; function size = 23 bytes
; local varsig tk = 0x0 
; Exception Information:
; 0 handlers, each consisting of filtered handlers


;	.proc.beg

; 37   : static BStreamIO _endl;

	ldsflda		__endl
	call		??0BStreamIO@@$$FQAE@XZ
	pop		
	ldsfld		__unep@?$E2@?A0x358b314b@@$$FYAXXZ
	call		?atexit@@$$J0YAHP6AXXZ@Z
	pop		
$L6805:
	ret		
 .end ?$E1@?A0x358b314b@@$$FYAXXZ			; `anonymous namespace'::$E1
;	.proc.end.void
text$yc	ENDS
PUBLIC	__mep@?$E1@?A0x358b314b@@$$FYAXXZ
;	COMDAT __mep@?$E1@?A0x358b314b@@$$FYAXXZ
data	SEGMENT
__mep@?$E1@?A0x358b314b@@$$FYAXXZ TOKEN 06000039
; Function compile flags: /Odt
data	ENDS
;	COMDAT ?$E1@?A0x358b314b@@YAXXZ
text$yc	SEGMENT
?$E1@?A0x358b314b@@YAXXZ PROC NEAR			; `anonymous namespace'::$E1, COMDAT
	jmp	DWORD PTR __mep@?$E1@?A0x358b314b@@$$FYAXXZ
?$E1@?A0x358b314b@@YAXXZ ENDP				; `anonymous namespace'::$E1
.global	__unep@?$E5@?A0x358b314b@@$$FYAXXZ
	.CRT$XCU

_$S6:
	DD	?$E4@?A0x358b314b@@YAXXZ
	.rdata
	.comdat	any, __unep@?$E5@?A0x358b314b@@$$FYAXXZ

__unep@?$E5@?A0x358b314b@@$$FYAXXZ:
	DD	?$E5@?A0x358b314b@@YAXXZ
; Function compile flags: /Odt
	.textseg	.text$yc
	.comdat	any, ?$E4@?A0x358b314b@@$$FYAXXZ
.global	?$E4@?A0x358b314b@@$$FYAXXZ			; `anonymous namespace'::$E4
?$E4@?A0x358b314b@@$$FYAXXZ:				; `anonymous namespace'::$E4
;	.proc.def	D:V()

; Function Header:
; max stack depth = 1
; function size = 23 bytes
; local varsig tk = 0x0 
; Exception Information:
; 0 handlers, each consisting of filtered handlers


;	.proc.beg

; 38   : static BStreamIO _ends;

	ldsflda		__ends
	call		??0BStreamIO@@$$FQAE@XZ
	pop		
	ldsfld		__unep@?$E5@?A0x358b314b@@$$FYAXXZ
	call		?atexit@@$$J0YAHP6AXXZ@Z
	pop		
$L6823:
	ret		
 .end ?$E4@?A0x358b314b@@$$FYAXXZ			; `anonymous namespace'::$E4
;	.proc.end.void
text$yc	ENDS
PUBLIC	__mep@?$E4@?A0x358b314b@@$$FYAXXZ
;	COMDAT __mep@?$E4@?A0x358b314b@@$$FYAXXZ
data	SEGMENT
__mep@?$E4@?A0x358b314b@@$$FYAXXZ TOKEN 0600003B
; Function compile flags: /Odt
data	ENDS
;	COMDAT ?$E4@?A0x358b314b@@YAXXZ
text$yc	SEGMENT
?$E4@?A0x358b314b@@YAXXZ PROC NEAR			; `anonymous namespace'::$E4, COMDAT
	jmp	DWORD PTR __mep@?$E4@?A0x358b314b@@$$FYAXXZ
?$E4@?A0x358b314b@@YAXXZ ENDP				; `anonymous namespace'::$E4
.global	__unep@?$E8@?A0x358b314b@@$$FYAXXZ
	.CRT$XCU

_$S9:
	DD	?$E7@?A0x358b314b@@YAXXZ
	.rdata
	.comdat	any, __unep@?$E8@?A0x358b314b@@$$FYAXXZ

__unep@?$E8@?A0x358b314b@@$$FYAXXZ:
	DD	?$E8@?A0x358b314b@@YAXXZ
; Function compile flags: /Odt
	.textseg	.text$yc
	.comdat	any, ?$E7@?A0x358b314b@@$$FYAXXZ
.global	?$E7@?A0x358b314b@@$$FYAXXZ			; `anonymous namespace'::$E7
?$E7@?A0x358b314b@@$$FYAXXZ:				; `anonymous namespace'::$E7
;	.proc.def	D:V()

; Function Header:
; max stack depth = 2
; function size = 24 bytes
; local varsig tk = 0x0 
; Exception Information:
; 0 handlers, each consisting of filtered handlers


;	.proc.beg

; 39   : static BStandardIO _EIn(0);

	ldsflda		__EIn
	ldc.i.0		0		; i32 0x0
	call		??0BStandardIO@@$$FQAE@H@Z
	pop		
	ldsfld		__unep@?$E8@?A0x358b314b@@$$FYAXXZ
	call		?atexit@@$$J0YAHP6AXXZ@Z
	pop		
$L6841:
	ret		
 .end ?$E7@?A0x358b314b@@$$FYAXXZ			; `anonymous namespace'::$E7
;	.proc.end.void
text$yc	ENDS
PUBLIC	__mep@?$E7@?A0x358b314b@@$$FYAXXZ
;	COMDAT __mep@?$E7@?A0x358b314b@@$$FYAXXZ
data	SEGMENT
__mep@?$E7@?A0x358b314b@@$$FYAXXZ TOKEN 0600003D
; Function compile flags: /Odt
data	ENDS
;	COMDAT ?$E7@?A0x358b314b@@YAXXZ
text$yc	SEGMENT
?$E7@?A0x358b314b@@YAXXZ PROC NEAR			; `anonymous namespace'::$E7, COMDAT
	jmp	DWORD PTR __mep@?$E7@?A0x358b314b@@$$FYAXXZ
?$E7@?A0x358b314b@@YAXXZ ENDP				; `anonymous namespace'::$E7
.global	__unep@?$E11@?A0x358b314b@@$$FYAXXZ
	.CRT$XCU

_$S12:
	DD	?$E10@?A0x358b314b@@YAXXZ
	.rdata
	.comdat	any, __unep@?$E11@?A0x358b314b@@$$FYAXXZ

__unep@?$E11@?A0x358b314b@@$$FYAXXZ:
	DD	?$E11@?A0x358b314b@@YAXXZ
; Function compile flags: /Odt
	.textseg	.text$yc
	.comdat	any, ?$E10@?A0x358b314b@@$$FYAXXZ
.global	?$E10@?A0x358b314b@@$$FYAXXZ			; `anonymous namespace'::$E10
?$E10@?A0x358b314b@@$$FYAXXZ:				; `anonymous namespace'::$E10
;	.proc.def	D:V()

; Function Header:
; max stack depth = 2
; function size = 24 bytes
; local varsig tk = 0x0 
; Exception Information:
; 0 handlers, each consisting of filtered handlers


;	.proc.beg

; 40   : static BStandardIO _EOut(1);

	ldsflda		__EOut
	ldc.i.1		1		; i32 0x1
	call		??0BStandardIO@@$$FQAE@H@Z
	pop		
	ldsfld		__unep@?$E11@?A0x358b314b@@$$FYAXXZ
	call		?atexit@@$$J0YAHP6AXXZ@Z
	pop		
$L6859:
	ret		
 .end ?$E10@?A0x358b314b@@$$FYAXXZ			; `anonymous namespace'::$E10
;	.proc.end.void
text$yc	ENDS
PUBLIC	__mep@?$E10@?A0x358b314b@@$$FYAXXZ
;	COMDAT __mep@?$E10@?A0x358b314b@@$$FYAXXZ
data	SEGMENT
__mep@?$E10@?A0x358b314b@@$$FYAXXZ TOKEN 0600003F
; Function compile flags: /Odt
data	ENDS
;	COMDAT ?$E10@?A0x358b314b@@YAXXZ
text$yc	SEGMENT
?$E10@?A0x358b314b@@YAXXZ PROC NEAR			; `anonymous namespace'::$E10, COMDAT
	jmp	DWORD PTR __mep@?$E10@?A0x358b314b@@$$FYAXXZ
?$E10@?A0x358b314b@@YAXXZ ENDP				; `anonymous namespace'::$E10
.global	__unep@?$E14@?A0x358b314b@@$$FYAXXZ
	.CRT$XCU

_$S15:
	DD	?$E13@?A0x358b314b@@YAXXZ
	.rdata
	.comdat	any, __unep@?$E14@?A0x358b314b@@$$FYAXXZ

__unep@?$E14@?A0x358b314b@@$$FYAXXZ:
	DD	?$E14@?A0x358b314b@@YAXXZ
; Function compile flags: /Odt
	.textseg	.text$yc
	.comdat	any, ?$E13@?A0x358b314b@@$$FYAXXZ
.global	?$E13@?A0x358b314b@@$$FYAXXZ			; `anonymous namespace'::$E13
?$E13@?A0x358b314b@@$$FYAXXZ:				; `anonymous namespace'::$E13
;	.proc.def	D:V()

; Function Header:
; max stack depth = 2
; function size = 24 bytes
; local varsig tk = 0x0 
; Exception Information:
; 0 handlers, each consisting of filtered handlers


;	.proc.beg

; 41   : static BStandardIO _EErr(2);

	ldsflda		__EErr
	ldc.i.2		2		; i32 0x2
	call		??0BStandardIO@@$$FQAE@H@Z
	pop		
	ldsfld		__unep@?$E14@?A0x358b314b@@$$FYAXXZ
	call		?atexit@@$$J0YAHP6AXXZ@Z
	pop		
$L6877:
	ret		
 .end ?$E13@?A0x358b314b@@$$FYAXXZ			; `anonymous namespace'::$E13
;	.proc.end.void
text$yc	ENDS
PUBLIC	__mep@?$E13@?A0x358b314b@@$$FYAXXZ
;	COMDAT __mep@?$E13@?A0x358b314b@@$$FYAXXZ
data	SEGMENT
__mep@?$E13@?A0x358b314b@@$$FYAXXZ TOKEN 06000041
; Function compile flags: /Odt
data	ENDS
;	COMDAT ?$E13@?A0x358b314b@@YAXXZ
text$yc	SEGMENT
?$E13@?A0x358b314b@@YAXXZ PROC NEAR			; `anonymous namespace'::$E13, COMDAT
	jmp	DWORD PTR __mep@?$E13@?A0x358b314b@@$$FYAXXZ
?$E13@?A0x358b314b@@YAXXZ ENDP				; `anonymous namespace'::$E13
	.CRT$XCU

_$S17:
	DD	?$E16@?A0x358b314b@@YAXXZ
; Function compile flags: /Odt
	.textseg	.text$yc
	.comdat	any, ?$E16@?A0x358b314b@@$$FYAXXZ
.global	?$E16@?A0x358b314b@@$$FYAXXZ			; `anonymous namespace'::$E16
?$E16@?A0x358b314b@@$$FYAXXZ:				; `anonymous namespace'::$E16
;	.proc.def	D:V()

; Function Header:
; max stack depth = 1
; function size = 11 bytes
; local varsig tk = 0x0 
; Exception Information:
; 0 handlers, each consisting of filtered handlers


;	.proc.beg

; 43   : EXPORT_BHAPI BStreamIO &endl = _endl;

	ldsflda		__endl
	stsfld		?endl@@3AAVBStreamIO@@A
$L6890:
	ret		
 .end ?$E16@?A0x358b314b@@$$FYAXXZ			; `anonymous namespace'::$E16
;	.proc.end.void
text$yc	ENDS
PUBLIC	__mep@?$E16@?A0x358b314b@@$$FYAXXZ
;	COMDAT __mep@?$E16@?A0x358b314b@@$$FYAXXZ
data	SEGMENT
__mep@?$E16@?A0x358b314b@@$$FYAXXZ TOKEN 06000043
; Function compile flags: /Odt
data	ENDS
;	COMDAT ?$E16@?A0x358b314b@@YAXXZ
text$yc	SEGMENT
?$E16@?A0x358b314b@@YAXXZ PROC NEAR			; `anonymous namespace'::$E16, COMDAT
	jmp	DWORD PTR __mep@?$E16@?A0x358b314b@@$$FYAXXZ
?$E16@?A0x358b314b@@YAXXZ ENDP				; `anonymous namespace'::$E16
	.CRT$XCU

_$S19:
	DD	?$E18@?A0x358b314b@@YAXXZ
; Function compile flags: /Odt
	.textseg	.text$yc
	.comdat	any, ?$E18@?A0x358b314b@@$$FYAXXZ
.global	?$E18@?A0x358b314b@@$$FYAXXZ			; `anonymous namespace'::$E18
?$E18@?A0x358b314b@@$$FYAXXZ:				; `anonymous namespace'::$E18
;	.proc.def	D:V()

; Function Header:
; max stack depth = 1
; function size = 11 bytes
; local varsig tk = 0x0 
; Exception Information:
; 0 handlers, each consisting of filtered handlers


;	.proc.beg

; 44   : EXPORT_BHAPI BStreamIO &ends = _ends;

	ldsflda		__ends
	stsfld		?ends@@3AAVBStreamIO@@A
$L6903:
	ret		
 .end ?$E18@?A0x358b314b@@$$FYAXXZ			; `anonymous namespace'::$E18
;	.proc.end.void
text$yc	ENDS
PUBLIC	__mep@?$E18@?A0x358b314b@@$$FYAXXZ
;	COMDAT __mep@?$E18@?A0x358b314b@@$$FYAXXZ
data	SEGMENT
__mep@?$E18@?A0x358b314b@@$$FYAXXZ TOKEN 06000044
; Function compile flags: /Odt
data	ENDS
;	COMDAT ?$E18@?A0x358b314b@@YAXXZ
text$yc	SEGMENT
?$E18@?A0x358b314b@@YAXXZ PROC NEAR			; `anonymous namespace'::$E18, COMDAT
	jmp	DWORD PTR __mep@?$E18@?A0x358b314b@@$$FYAXXZ
?$E18@?A0x358b314b@@YAXXZ ENDP				; `anonymous namespace'::$E18
	.CRT$XCU

_$S21:
	DD	?$E20@?A0x358b314b@@YAXXZ
; Function compile flags: /Odt
	.textseg	.text$yc
	.comdat	any, ?$E20@?A0x358b314b@@$$FYAXXZ
.global	?$E20@?A0x358b314b@@$$FYAXXZ			; `anonymous namespace'::$E20
?$E20@?A0x358b314b@@$$FYAXXZ:				; `anonymous namespace'::$E20
;	.proc.def	D:V()

; Function Header:
; max stack depth = 1
; function size = 11 bytes
; local varsig tk = 0x0 
; Exception Information:
; 0 handlers, each consisting of filtered handlers


;	.proc.beg

; 45   : EXPORT_BHAPI BStreamIO &EIn = _EIn;

	ldsflda		__EIn
	stsfld		?EIn@@3AAVBStreamIO@@A
$L6916:
	ret		
 .end ?$E20@?A0x358b314b@@$$FYAXXZ			; `anonymous namespace'::$E20
;	.proc.end.void
text$yc	ENDS
PUBLIC	__mep@?$E20@?A0x358b314b@@$$FYAXXZ
;	COMDAT __mep@?$E20@?A0x358b314b@@$$FYAXXZ
data	SEGMENT
__mep@?$E20@?A0x358b314b@@$$FYAXXZ TOKEN 06000045
; Function compile flags: /Odt
data	ENDS
;	COMDAT ?$E20@?A0x358b314b@@YAXXZ
text$yc	SEGMENT
?$E20@?A0x358b314b@@YAXXZ PROC NEAR			; `anonymous namespace'::$E20, COMDAT
	jmp	DWORD PTR __mep@?$E20@?A0x358b314b@@$$FYAXXZ
?$E20@?A0x358b314b@@YAXXZ ENDP				; `anonymous namespace'::$E20
	.CRT$XCU

_$S23:
	DD	?$E22@?A0x358b314b@@YAXXZ
; Function compile flags: /Odt
	.textseg	.text$yc
	.comdat	any, ?$E22@?A0x358b314b@@$$FYAXXZ
.global	?$E22@?A0x358b314b@@$$FYAXXZ			; `anonymous namespace'::$E22
?$E22@?A0x358b314b@@$$FYAXXZ:				; `anonymous namespace'::$E22
;	.proc.def	D:V()

; Function Header:
; max stack depth = 1
; function size = 11 bytes
; local varsig tk = 0x0 
; Exception Information:
; 0 handlers, each consisting of filtered handlers


;	.proc.beg

; 46   : EXPORT_BHAPI BStreamIO &EOut = _EOut;

	ldsflda		__EOut
	stsfld		?EOut@@3AAVBStreamIO@@A
$L6929:
	ret		
 .end ?$E22@?A0x358b314b@@$$FYAXXZ			; `anonymous namespace'::$E22
;	.proc.end.void
text$yc	ENDS
PUBLIC	__mep@?$E22@?A0x358b314b@@$$FYAXXZ
;	COMDAT __mep@?$E22@?A0x358b314b@@$$FYAXXZ
data	SEGMENT
__mep@?$E22@?A0x358b314b@@$$FYAXXZ TOKEN 06000046
; Function compile flags: /Odt
data	ENDS
;	COMDAT ?$E22@?A0x358b314b@@YAXXZ
text$yc	SEGMENT
?$E22@?A0x358b314b@@YAXXZ PROC NEAR			; `anonymous namespace'::$E22, COMDAT
	jmp	DWORD PTR __mep@?$E22@?A0x358b314b@@$$FYAXXZ
?$E22@?A0x358b314b@@YAXXZ ENDP				; `anonymous namespace'::$E22
	.CRT$XCU

_$S25:
	DD	?$E24@?A0x358b314b@@YAXXZ
; Function compile flags: /Odt
	.textseg	.text$yc
	.comdat	any, ?$E24@?A0x358b314b@@$$FYAXXZ
.global	?$E24@?A0x358b314b@@$$FYAXXZ			; `anonymous namespace'::$E24
?$E24@?A0x358b314b@@$$FYAXXZ:				; `anonymous namespace'::$E24
;	.proc.def	D:V()

; Function Header:
; max stack depth = 1
; function size = 11 bytes
; local varsig tk = 0x0 
; Exception Information:
; 0 handlers, each consisting of filtered handlers


;	.proc.beg

; 47   : EXPORT_BHAPI BStreamIO &EErr = _EErr;

	ldsflda		__EErr
	stsfld		?EErr@@3AAVBStreamIO@@A
$L6942:
	ret		
 .end ?$E24@?A0x358b314b@@$$FYAXXZ			; `anonymous namespace'::$E24
;	.proc.end.void
text$yc	ENDS
PUBLIC	__mep@?$E24@?A0x358b314b@@$$FYAXXZ
;	COMDAT __mep@?$E24@?A0x358b314b@@$$FYAXXZ
data	SEGMENT
__mep@?$E24@?A0x358b314b@@$$FYAXXZ TOKEN 06000047
; Function compile flags: /Odt
data	ENDS
;	COMDAT ?$E24@?A0x358b314b@@YAXXZ
text$yc	SEGMENT
?$E24@?A0x358b314b@@YAXXZ PROC NEAR			; `anonymous namespace'::$E24, COMDAT
	jmp	DWORD PTR __mep@?$E24@?A0x358b314b@@$$FYAXXZ
?$E24@?A0x358b314b@@YAXXZ ENDP				; `anonymous namespace'::$E24
text$yc	ENDS
EXTRN	?$E2@?A0x358b314b@@$$FYAXXZ:NEAR		; `anonymous namespace'::$E2
; Function compile flags: /Odt
;	COMDAT ?$E2@?A0x358b314b@@YAXXZ
text$yd	SEGMENT
?$E2@?A0x358b314b@@YAXXZ PROC NEAR			; `anonymous namespace'::$E2, COMDAT
	push	ebp
	mov	ebp, esp
	mov	ecx, OFFSET FLAT:__endl
	call	??1BStreamIO@@UAE@XZ			; BStreamIO::~BStreamIO
	pop	ebp
	ret	0
?$E2@?A0x358b314b@@YAXXZ ENDP				; `anonymous namespace'::$E2
text$yd	ENDS
EXTRN	?$E5@?A0x358b314b@@$$FYAXXZ:NEAR		; `anonymous namespace'::$E5
; Function compile flags: /Odt
;	COMDAT ?$E5@?A0x358b314b@@YAXXZ
text$yd	SEGMENT
?$E5@?A0x358b314b@@YAXXZ PROC NEAR			; `anonymous namespace'::$E5, COMDAT
	push	ebp
	mov	ebp, esp
	mov	ecx, OFFSET FLAT:__ends
	call	??1BStreamIO@@UAE@XZ			; BStreamIO::~BStreamIO
	pop	ebp
	ret	0
?$E5@?A0x358b314b@@YAXXZ ENDP				; `anonymous namespace'::$E5
text$yd	ENDS
EXTRN	??1BStandardIO@@UAE@XZ:NEAR			; BStandardIO::~BStandardIO
EXTRN	?$E8@?A0x358b314b@@$$FYAXXZ:NEAR		; `anonymous namespace'::$E8
; Function compile flags: /Odt
;	COMDAT ?$E8@?A0x358b314b@@YAXXZ
text$yd	SEGMENT
?$E8@?A0x358b314b@@YAXXZ PROC NEAR			; `anonymous namespace'::$E8, COMDAT
	push	ebp
	mov	ebp, esp
	mov	ecx, OFFSET FLAT:__EIn
	call	??1BStandardIO@@UAE@XZ			; BStandardIO::~BStandardIO
	pop	ebp
	ret	0
?$E8@?A0x358b314b@@YAXXZ ENDP				; `anonymous namespace'::$E8
text$yd	ENDS
EXTRN	?$E11@?A0x358b314b@@$$FYAXXZ:NEAR		; `anonymous namespace'::$E11
; Function compile flags: /Odt
;	COMDAT ?$E11@?A0x358b314b@@YAXXZ
text$yd	SEGMENT
?$E11@?A0x358b314b@@YAXXZ PROC NEAR			; `anonymous namespace'::$E11, COMDAT
	push	ebp
	mov	ebp, esp
	mov	ecx, OFFSET FLAT:__EOut
	call	??1BStandardIO@@UAE@XZ			; BStandardIO::~BStandardIO
	pop	ebp
	ret	0
?$E11@?A0x358b314b@@YAXXZ ENDP				; `anonymous namespace'::$E11
text$yd	ENDS
EXTRN	?$E14@?A0x358b314b@@$$FYAXXZ:NEAR		; `anonymous namespace'::$E14
; Function compile flags: /Odt
;	COMDAT ?$E14@?A0x358b314b@@YAXXZ
text$yd	SEGMENT
?$E14@?A0x358b314b@@YAXXZ PROC NEAR			; `anonymous namespace'::$E14, COMDAT
	push	ebp
	mov	ebp, esp
	mov	ecx, OFFSET FLAT:__EErr
	call	??1BStandardIO@@UAE@XZ			; BStandardIO::~BStandardIO
	pop	ebp
	ret	0
?$E14@?A0x358b314b@@YAXXZ ENDP				; `anonymous namespace'::$E14
text$yd	ENDS
PUBLIC	?endl@@3AAVBStreamIO@@A				; endl
PUBLIC	?ends@@3AAVBStreamIO@@A				; ends
PUBLIC	?EIn@@3AAVBStreamIO@@A				; EIn
PUBLIC	?EOut@@3AAVBStreamIO@@A				; EOut
PUBLIC	?EErr@@3AAVBStreamIO@@A				; EErr
bss	SEGMENT
?endl@@3AAVBStreamIO@@A DD 01H DUP (?)			; endl
?ends@@3AAVBStreamIO@@A DD 01H DUP (?)			; ends
?EIn@@3AAVBStreamIO@@A DD 01H DUP (?)			; EIn
?EOut@@3AAVBStreamIO@@A DD 01H DUP (?)			; EOut
?EErr@@3AAVBStreamIO@@A DD 01H DUP (?)			; EErr
__endl	DD	01H DUP (?)
__ends	DD	01H DUP (?)
__EIn	DQ	01H DUP (?)
__EOut	DQ	01H DUP (?)
__EErr	DQ	01H DUP (?)
bss	ENDS
END
