; Listing generated by Microsoft (R) Optimizing Compiler Version 13.10.3077 

; Generated by VC++ for Common Language Runtime
.file "\Documents and Settings\stasiek.TC12\My Documents\prc++\x86_libraries\Bhapi\src\kits\support\StringArray.cpp"
.global	
.global	
	.bss
.local	,4
.local	,4
; Function compile flags: /Odt
; File c:\program files\microsoft visual studio .net 2003\vc7\include\xmemory
	.text
	.comdat	any, ??0?$allocator@X@std@@$$FQAE@ABV01@@Z
.global	??0?$allocator@X@std@@$$FQAE@ABV01@@Z		; std::allocator<void>::allocator<void>
??0?$allocator@X@std@@$$FQAE@ABV01@@Z:			; std::allocator<void>::allocator<void>
;	.proc.def	D:I(II)

; Function Header:
; max stack depth = 1
; function size = 2 bytes
; local varsig tk = 0x0 
; Exception Information:
; 0 handlers, each consisting of filtered handlers

;	.formal.i4 0,"_this$" SIG: Optional C Binding Modifier(token:0x991FA2).Optional C Binding Modifier(token:0x991FA4).ptr.valueType (token:0x991FA7)

;	.proc.beg

; 197  : 		{	// construct by copying (do nothing)
; 198  : 		}

	ldarg.0				; _this$
$L6440:
	ret		
 .end ??0?$allocator@X@std@@$$FQAE@ABV01@@Z		; std::allocator<void>::allocator<void>
;	.proc.end.i4
text	ENDS
PUBLIC	??0?$allocator@X@std@@QAE@ABV01@@Z		; std::allocator<void>::allocator<void>
PUBLIC	__mep@??0?$allocator@X@std@@$$FQAE@ABV01@@Z
;	COMDAT __mep@??0?$allocator@X@std@@$$FQAE@ABV01@@Z
data	SEGMENT
__mep@??0?$allocator@X@std@@$$FQAE@ABV01@@Z TOKEN 06000038
; Function compile flags: /Odt
data	ENDS
;	COMDAT ??0?$allocator@X@std@@QAE@ABV01@@Z
text	SEGMENT
??0?$allocator@X@std@@QAE@ABV01@@Z PROC NEAR		; std::allocator<void>::allocator<void>, COMDAT
	jmp	DWORD PTR __mep@??0?$allocator@X@std@@$$FQAE@ABV01@@Z
??0?$allocator@X@std@@QAE@ABV01@@Z ENDP			; std::allocator<void>::allocator<void>
.global	
	.bss
.local	,4
; Function compile flags: /Odt
; File c:\documents and settings\stasiek.tc12\my documents\prc++\x86_libraries\bhapi\src\kits\support\stringarray.cpp
	.text
.global	??0BStringArray@@$$FQAE@XZ			; BStringArray::BStringArray
??0BStringArray@@$$FQAE@XZ:				; BStringArray::BStringArray
;	.proc.def	D:I(I)

; Function Header:
; max stack depth = 2
; function size = 10 bytes
; local varsig tk = 0x0 
; Exception Information:
; 0 handlers, each consisting of filtered handlers

;	.formal.i4 0,"_this$" SIG: Optional C Binding Modifier(token:0x23C8A5E).Optional C Binding Modifier(token:0x23C8A60).ptr.valueType (token:0x23C8A63)

;	.proc.beg

; 51   : {

	ldarg.0				; _this$
	ldc.i.0		0		; i32 0x0
	call		??0BList@@$$FQAE@H@Z
	pop		

; 52   : }

	ldarg.0				; _this$
$L6467:
	ret		
 .end ??0BStringArray@@$$FQAE@XZ			; BStringArray::BStringArray
;	.proc.end.i4
text	ENDS
PUBLIC	??0BStringArray@@QAE@XZ				; BStringArray::BStringArray
PUBLIC	__mep@??0BStringArray@@$$FQAE@XZ
;	COMDAT __mep@??0BStringArray@@$$FQAE@XZ
data	SEGMENT
__mep@??0BStringArray@@$$FQAE@XZ TOKEN 0600003C
; Function compile flags: /Odt
data	ENDS
;	COMDAT ??0BStringArray@@QAE@XZ
text	SEGMENT
??0BStringArray@@QAE@XZ PROC NEAR			; BStringArray::BStringArray, COMDAT
	jmp	DWORD PTR __mep@??0BStringArray@@$$FQAE@XZ
??0BStringArray@@QAE@XZ ENDP				; BStringArray::BStringArray
.global	
.global	
	.bss
.local	,4
.local	,4
	.rdata
	.comdat	any, __unep@??1BList@@$$FUAE@XZ

__unep@??1BList@@$$FUAE@XZ:
	DD	??1BList@@UAE@XZ
; Function compile flags: /Odt
	.text
.global	??0BStringArray@@$$FQAE@PBDPAX@Z		; BStringArray::BStringArray
??0BStringArray@@$$FQAE@PBDPAX@Z:			; BStringArray::BStringArray
;	.proc.def	D:I(III)

; Function Header:
; max stack depth = 3
; function size = 33 bytes
; local varsig tk = 0x0 
; Exception Information:
; 1 handlers, each consisting of filtered handlers

;	.formal.i4 1,"_string$" SIG: ptr.Optional C Binding Modifier(token:0x23C902F).Optional C Binding Modifier(token:0x23C9031).i1
;	.formal.i4 2,"_attach_data$" SIG: ptr.void
;	.formal.i4 0,"_this$" SIG: Optional C Binding Modifier(token:0x23C8A5E).Optional C Binding Modifier(token:0x23C8A60).ptr.valueType (token:0x23C8A63)

;	.proc.beg

; 56   : {

	ldarg.0				; _this$
	ldc.i.0		0		; i32 0x0
	call		??0BList@@$$FQAE@H@Z
	pop		
$L6486:

; 57   : 	AddItem(string, attach_data);

	ldarg.0				; _this$
	ldarg.1				; _string$
	ldarg.2				; _attach_data$
	call		?AddItem@BStringArray@@$$FQAE_NPBDPAX@Z
	pop		
	leave.s		$L6487
$L6488:
	ldsfld		__unep@??1BList@@$$FUAE@XZ
	ldarg.0				; _this$
	call		?__CxxCallUnwindDtor@@$$J0YAXP6EXPAX@Z0@Z
	endfinally	
$L6487:

; 58   : }

	ldarg.0				; _this$
$L6489:
	ret		
 .end ??0BStringArray@@$$FQAE@PBDPAX@Z			; BStringArray::BStringArray
;	.proc.end.i4
text	ENDS
PUBLIC	??0BStringArray@@QAE@PBDPAX@Z			; BStringArray::BStringArray
PUBLIC	__mep@??0BStringArray@@$$FQAE@PBDPAX@Z
;	COMDAT __mep@??0BStringArray@@$$FQAE@PBDPAX@Z
data	SEGMENT
__mep@??0BStringArray@@$$FQAE@PBDPAX@Z TOKEN 0600003D
; Function compile flags: /Odt
data	ENDS
;	COMDAT ??0BStringArray@@QAE@PBDPAX@Z
text	SEGMENT
??0BStringArray@@QAE@PBDPAX@Z PROC NEAR			; BStringArray::BStringArray, COMDAT
	jmp	DWORD PTR __mep@??0BStringArray@@$$FQAE@PBDPAX@Z
??0BStringArray@@QAE@PBDPAX@Z ENDP			; BStringArray::BStringArray
.global	
	.bss
.local	,4
; Function compile flags: /Odt
	.text
.global	??0BStringArray@@$$FQAE@ABVBString@@PAX@Z	; BStringArray::BStringArray
??0BStringArray@@$$FQAE@ABVBString@@PAX@Z:		; BStringArray::BStringArray
;	.proc.def	D:I(III)

; Function Header:
; max stack depth = 3
; function size = 33 bytes
; local varsig tk = 0x0 
; Exception Information:
; 1 handlers, each consisting of filtered handlers

;	.formal.i4 1,"_string$" SIG: Optional C Binding Modifier(token:0x990B3E).ptr.Optional C Binding Modifier(token:0x990B41).valueType (token:0x990B43)
;	.formal.i4 2,"_attach_data$" SIG: ptr.void
;	.formal.i4 0,"_this$" SIG: Optional C Binding Modifier(token:0x23C8A5E).Optional C Binding Modifier(token:0x23C8A60).ptr.valueType (token:0x23C8A63)

;	.proc.beg

; 62   : {

	ldarg.0				; _this$
	ldc.i.0		0		; i32 0x0
	call		??0BList@@$$FQAE@H@Z
	pop		
$L6509:

; 63   : 	AddItem(string, attach_data);

	ldarg.0				; _this$
	ldarg.1				; _string$
	ldarg.2				; _attach_data$
	call		?AddItem@BStringArray@@$$FQAE_NABVBString@@PAX@Z
	pop		
	leave.s		$L6510
$L6511:
	ldsfld		__unep@??1BList@@$$FUAE@XZ
	ldarg.0				; _this$
	call		?__CxxCallUnwindDtor@@$$J0YAXP6EXPAX@Z0@Z
	endfinally	
$L6510:

; 64   : }

	ldarg.0				; _this$
$L6512:
	ret		
 .end ??0BStringArray@@$$FQAE@ABVBString@@PAX@Z		; BStringArray::BStringArray
;	.proc.end.i4
text	ENDS
PUBLIC	??0BStringArray@@QAE@ABVBString@@PAX@Z		; BStringArray::BStringArray
PUBLIC	__mep@??0BStringArray@@$$FQAE@ABVBString@@PAX@Z
;	COMDAT __mep@??0BStringArray@@$$FQAE@ABVBString@@PAX@Z
data	SEGMENT
__mep@??0BStringArray@@$$FQAE@ABVBString@@PAX@Z TOKEN 0600003E
; Function compile flags: /Odt
data	ENDS
;	COMDAT ??0BStringArray@@QAE@ABVBString@@PAX@Z
text	SEGMENT
??0BStringArray@@QAE@ABVBString@@PAX@Z PROC NEAR	; BStringArray::BStringArray, COMDAT
	jmp	DWORD PTR __mep@??0BStringArray@@$$FQAE@ABVBString@@PAX@Z
??0BStringArray@@QAE@ABVBString@@PAX@Z ENDP		; BStringArray::BStringArray
.global	
	.bss
.local	,4
; Function compile flags: /Odt
	.text
.global	??0BStringArray@@$$FQAE@PAPBD@Z			; BStringArray::BStringArray
??0BStringArray@@$$FQAE@PAPBD@Z:			; BStringArray::BStringArray
;	.proc.def	D:I(II)

; Function Header:
; max stack depth = 2
; function size = 32 bytes
; local varsig tk = 0x0 
; Exception Information:
; 1 handlers, each consisting of filtered handlers

;	.formal.i4 1,"_array$" SIG: ptr.ptr.Optional C Binding Modifier(token:0x9D7568).Optional C Binding Modifier(token:0x9D756A).i1
;	.formal.i4 0,"_this$" SIG: Optional C Binding Modifier(token:0x23C8A5E).Optional C Binding Modifier(token:0x23C8A60).ptr.valueType (token:0x23C8A63)

;	.proc.beg

; 68   : {

	ldarg.0				; _this$
	ldc.i.0		0		; i32 0x0
	call		??0BList@@$$FQAE@H@Z
	pop		
$L6531:

; 69   : 	operator=(array);

	ldarg.0				; _this$
	ldarg.1				; _array$
	call		??4BStringArray@@$$FQAEAAV0@PAPBD@Z
	pop		
	leave.s		$L6532
$L6533:
	ldsfld		__unep@??1BList@@$$FUAE@XZ
	ldarg.0				; _this$
	call		?__CxxCallUnwindDtor@@$$J0YAXP6EXPAX@Z0@Z
	endfinally	
$L6532:

; 70   : }

	ldarg.0				; _this$
$L6534:
	ret		
 .end ??0BStringArray@@$$FQAE@PAPBD@Z			; BStringArray::BStringArray
;	.proc.end.i4
text	ENDS
PUBLIC	??0BStringArray@@QAE@PAPBD@Z			; BStringArray::BStringArray
PUBLIC	__mep@??0BStringArray@@$$FQAE@PAPBD@Z
;	COMDAT __mep@??0BStringArray@@$$FQAE@PAPBD@Z
data	SEGMENT
__mep@??0BStringArray@@$$FQAE@PAPBD@Z TOKEN 0600003F
; Function compile flags: /Odt
data	ENDS
;	COMDAT ??0BStringArray@@QAE@PAPBD@Z
text	SEGMENT
??0BStringArray@@QAE@PAPBD@Z PROC NEAR			; BStringArray::BStringArray, COMDAT
	jmp	DWORD PTR __mep@??0BStringArray@@$$FQAE@PAPBD@Z
??0BStringArray@@QAE@PAPBD@Z ENDP			; BStringArray::BStringArray
.global	
	.bss
.local	,4
; Function compile flags: /Odt
	.text
.global	??0BStringArray@@$$FQAE@ABV0@@Z			; BStringArray::BStringArray
??0BStringArray@@$$FQAE@ABV0@@Z:			; BStringArray::BStringArray
;	.proc.def	D:I(II)

; Function Header:
; max stack depth = 2
; function size = 32 bytes
; local varsig tk = 0x0 
; Exception Information:
; 1 handlers, each consisting of filtered handlers

;	.formal.i4 1,"_array$" SIG: Optional C Binding Modifier(token:0x9D7666).ptr.Optional C Binding Modifier(token:0x9D7669).valueType (token:0x9D766B)
;	.formal.i4 0,"_this$" SIG: Optional C Binding Modifier(token:0x23C8A5E).Optional C Binding Modifier(token:0x23C8A60).ptr.valueType (token:0x23C8A63)

;	.proc.beg

; 74   : {

	ldarg.0				; _this$
	ldc.i.0		0		; i32 0x0
	call		??0BList@@$$FQAE@H@Z
	pop		
$L6553:

; 75   : 	operator=(array);

	ldarg.0				; _this$
	ldarg.1				; _array$
	call		??4BStringArray@@$$FQAEAAV0@ABV0@@Z
	pop		
	leave.s		$L6554
$L6555:
	ldsfld		__unep@??1BList@@$$FUAE@XZ
	ldarg.0				; _this$
	call		?__CxxCallUnwindDtor@@$$J0YAXP6EXPAX@Z0@Z
	endfinally	
$L6554:

; 76   : }

	ldarg.0				; _this$
$L6556:
	ret		
 .end ??0BStringArray@@$$FQAE@ABV0@@Z			; BStringArray::BStringArray
;	.proc.end.i4
text	ENDS
PUBLIC	??0BStringArray@@QAE@ABV0@@Z			; BStringArray::BStringArray
PUBLIC	__mep@??0BStringArray@@$$FQAE@ABV0@@Z
;	COMDAT __mep@??0BStringArray@@$$FQAE@ABV0@@Z
data	SEGMENT
__mep@??0BStringArray@@$$FQAE@ABV0@@Z TOKEN 06000040
; Function compile flags: /Odt
data	ENDS
;	COMDAT ??0BStringArray@@QAE@ABV0@@Z
text	SEGMENT
??0BStringArray@@QAE@ABV0@@Z PROC NEAR			; BStringArray::BStringArray, COMDAT
	jmp	DWORD PTR __mep@??0BStringArray@@$$FQAE@ABV0@@Z
??0BStringArray@@QAE@ABV0@@Z ENDP			; BStringArray::BStringArray
; Function compile flags: /Odt
	.text
.global	??1BStringArray@@$$FQAE@XZ			; BStringArray::~BStringArray
??1BStringArray@@$$FQAE@XZ:				; BStringArray::~BStringArray
;	.proc.def	D:V(I)

; Function Header:
; max stack depth = 2
; function size = 27 bytes
; local varsig tk = 0x0 
; Exception Information:
; 1 handlers, each consisting of filtered handlers

;	.formal.i4 0,"_this$" SIG: Optional C Binding Modifier(token:0x23C8A5E).Optional C Binding Modifier(token:0x23C8A60).ptr.valueType (token:0x23C8A63)

;	.proc.beg

; 80   : {

$L6575:

; 81   : 	MakeEmpty();

	ldarg.0				; _this$
	call		?MakeEmpty@BStringArray@@$$FQAEXXZ
	leave.s		$L6576
$L6577:
	ldsfld		__unep@??1BList@@$$FUAE@XZ
	ldarg.0				; _this$
	call		?__CxxCallUnwindDtor@@$$J0YAXP6EXPAX@Z0@Z
	endfinally	
$L6576:

; 82   : }

	ldarg.0				; _this$
	call		??1BList@@$$FUAE@XZ
$L6578:
	ret		
 .end ??1BStringArray@@$$FQAE@XZ			; BStringArray::~BStringArray
;	.proc.end.void
text	ENDS
PUBLIC	??1BStringArray@@QAE@XZ				; BStringArray::~BStringArray
PUBLIC	__mep@??1BStringArray@@$$FQAE@XZ
;	COMDAT __mep@??1BStringArray@@$$FQAE@XZ
data	SEGMENT
__mep@??1BStringArray@@$$FQAE@XZ TOKEN 06000041
; Function compile flags: /Odt
data	ENDS
;	COMDAT ??1BStringArray@@QAE@XZ
text	SEGMENT
??1BStringArray@@QAE@XZ PROC NEAR			; BStringArray::~BStringArray, COMDAT
	jmp	DWORD PTR __mep@??1BStringArray@@$$FQAE@XZ
??1BStringArray@@QAE@XZ ENDP				; BStringArray::~BStringArray
.global	
	.bss
.local	,4
.local	$T6595,4
; Function compile flags: /Odt
	.text
.global	?MakeEmpty@BStringArray@@$$FQAEXXZ		; BStringArray::MakeEmpty
?MakeEmpty@BStringArray@@$$FQAEXXZ:			; BStringArray::MakeEmpty
;	.proc.def	D:V(I)

; Function Header:
; max stack depth = 2
; function size = 57 bytes
; local varsig tk = 0x1100000A 
; Exception Information:
; 0 handlers, each consisting of filtered handlers

;	.formal.i4 0,"_this$" SIG: Optional C Binding Modifier(token:0x23C8A5E).Optional C Binding Modifier(token:0x23C8A60).ptr.valueType (token:0x23C8A63)
;	.local.i4 2,"$T6592" SIG: ptr.void
;	.local.i4 0,"_i$5970"
;	.local.i4 1,"$T5977" SIG: ptr.valueType (token:0x23C8863)

;	.proc.beg

; 88   : 	if(!list.IsEmpty())

	ldarg.0				; _this$
	call		?IsEmpty@BList@@$$FQBE_NXZ
	brtrue.s	$L5968

; 89   : 	{
; 90   : 		for(b_int32 i = 0; i < list.CountItems(); i++) delete (__string_node__*)list.ItemAt(i);

	ldc.i.0		0		; i32 0x0
	stloc.0				; _i$5970
	br.s		$L5971
$L5972:
	ldloc.0				; _i$5970
	ldc.i.1		1		; i32 0x1
	add		
	stloc.0				; _i$5970
$L5971:
	ldloc.0				; _i$5970
	ldarg.0				; _this$
	call		?CountItems@BList@@$$FQBEHXZ
	bge.s		$L5973
	ldarg.0				; _this$
	ldloc.0				; _i$5970
	call		?ItemAt@BList@@$$FQBEPAXH@Z
	stloc.1				; $T5977
	ldloc.1				; $T5977
	brfalse.s	$L6582
	ldloc.1				; $T5977
	ldc.i.1		1		; u32 0x1
	call		??_G__string_node__@@$$FQAEPAXI@Z
	stloc.2				; $T6592
	br.s		$L6583
$L6582:
	ldc.i.0		0		; i32 0x0
	stloc.2				; $T6592
$L6583:
	br.s		$L5972
$L5973:

; 91   : 		list.MakeEmpty();

	ldarg.0				; _this$
	call		?MakeEmpty@BList@@$$FQAEXXZ
$L5968:
$L6593:

; 92   : 	}
; 93   : }

	ret		
 .end ?MakeEmpty@BStringArray@@$$FQAEXXZ		; BStringArray::MakeEmpty
;	.proc.end.void
text	ENDS
PUBLIC	?MakeEmpty@BStringArray@@QAEXXZ			; BStringArray::MakeEmpty
PUBLIC	__mep@?MakeEmpty@BStringArray@@$$FQAEXXZ
;	COMDAT __mep@?MakeEmpty@BStringArray@@$$FQAEXXZ
data	SEGMENT
__mep@?MakeEmpty@BStringArray@@$$FQAEXXZ TOKEN 06000042
; Function compile flags: /Odt
data	ENDS
;	COMDAT ?MakeEmpty@BStringArray@@QAEXXZ
text	SEGMENT
?MakeEmpty@BStringArray@@QAEXXZ PROC NEAR		; BStringArray::MakeEmpty, COMDAT
	jmp	DWORD PTR __mep@?MakeEmpty@BStringArray@@$$FQAEXXZ
?MakeEmpty@BStringArray@@QAEXXZ ENDP			; BStringArray::MakeEmpty
.global	
	.bss
.local	,4
; Function compile flags: /Odt
	.text
	.comdat	any, ??_G__string_node__@@$$FQAEPAXI@Z
.global	??_G__string_node__@@$$FQAEPAXI@Z		; __string_node__::`scalar deleting destructor'
??_G__string_node__@@$$FQAEPAXI@Z:			; __string_node__::`scalar deleting destructor'
;	.proc.def	D:I(II)

; Function Header:
; max stack depth = 2
; function size = 21 bytes
; local varsig tk = 0x0 
; Exception Information:
; 0 handlers, each consisting of filtered handlers

;	.formal.u4 1,"___flags$"
;	.formal.i4 0,"_this$" SIG: Optional C Binding Modifier(token:0x9D75E6).Optional C Binding Modifier(token:0x9D75E8).ptr.valueType (token:0x9D75EB)

;	.proc.beg
	ldarg.0				; _this$
	call		??1__string_node__@@$$FQAE@XZ
	ldarg.1				; ___flags$
	ldc.i.1		1		; u32 0x1
	and		
	brfalse.s	$L5981
	ldarg.0				; _this$
	call		??3@$$FYAXPAX@Z
$L5981:
	ldarg.0				; _this$
	br.s		$L6607
$L6607:
	ret		
 .end ??_G__string_node__@@$$FQAEPAXI@Z			; __string_node__::`scalar deleting destructor'
;	.proc.end.i4
text	ENDS
PUBLIC	??_G__string_node__@@QAEPAXI@Z			; __string_node__::`scalar deleting destructor'
PUBLIC	__mep@??_G__string_node__@@$$FQAEPAXI@Z
;	COMDAT __mep@??_G__string_node__@@$$FQAEPAXI@Z
data	SEGMENT
__mep@??_G__string_node__@@$$FQAEPAXI@Z TOKEN 06000043
; Function compile flags: /Odt
data	ENDS
;	COMDAT ??_G__string_node__@@QAEPAXI@Z
text	SEGMENT
??_G__string_node__@@QAEPAXI@Z PROC NEAR		; __string_node__::`scalar deleting destructor', COMDAT
	jmp	DWORD PTR __mep@??_G__string_node__@@$$FQAEPAXI@Z
??_G__string_node__@@QAEPAXI@Z ENDP			; __string_node__::`scalar deleting destructor'
	.bss
.local	$T6625,4
; Function compile flags: /Odt
	.text
	.comdat	any, ??1__string_node__@@$$FQAE@XZ
.global	??1__string_node__@@$$FQAE@XZ			; __string_node__::~__string_node__
??1__string_node__@@$$FQAE@XZ:				; __string_node__::~__string_node__
;	.proc.def	D:V(I)

; Function Header:
; max stack depth = 2
; function size = 29 bytes
; local varsig tk = 0x1100000C 
; Exception Information:
; 0 handlers, each consisting of filtered handlers

;	.formal.i4 0,"_this$" SIG: Optional C Binding Modifier(token:0x9D75E6).Optional C Binding Modifier(token:0x9D75E8).ptr.valueType (token:0x9D75EB)
;	.local.i4 1,"$T6623" SIG: ptr.void
;	.local.i4 0,"$T5932" SIG: ptr.valueType (token:0x99183F)

;	.proc.beg

; 45   : 		if(str) delete str;

	ldarg.0				; _this$
	unaligned	1		; u32 0x1
	ldind.i4	
	brfalse.s	$L5929
	ldarg.0				; _this$
	unaligned	1		; u32 0x1
	ldind.i4	
	stloc.0				; $T5932
	ldloc.0				; $T5932
	brfalse.s	$L6613
	ldloc.0				; $T5932
	ldc.i.1		1		; u32 0x1
	call		??_GBString@@$$FQAEPAXI@Z
	stloc.1				; $T6623
	br.s		$L5929
$L6613:
	ldc.i.0		0		; i32 0x0
	stloc.1				; $T6623
$L5929:
$L6624:

; 46   : 	}

	ret		
 .end ??1__string_node__@@$$FQAE@XZ			; __string_node__::~__string_node__
;	.proc.end.void
text	ENDS
PUBLIC	??1__string_node__@@QAE@XZ			; __string_node__::~__string_node__
PUBLIC	__mep@??1__string_node__@@$$FQAE@XZ
;	COMDAT __mep@??1__string_node__@@$$FQAE@XZ
data	SEGMENT
__mep@??1__string_node__@@$$FQAE@XZ TOKEN 0600003A
; Function compile flags: /Odt
data	ENDS
;	COMDAT ??1__string_node__@@QAE@XZ
text	SEGMENT
??1__string_node__@@QAE@XZ PROC NEAR			; __string_node__::~__string_node__, COMDAT
	jmp	DWORD PTR __mep@??1__string_node__@@$$FQAE@XZ
??1__string_node__@@QAE@XZ ENDP				; __string_node__::~__string_node__
.global	
	.bss
.local	,4
; Function compile flags: /Odt
	.text
	.comdat	any, ??_GBString@@$$FQAEPAXI@Z
.global	??_GBString@@$$FQAEPAXI@Z			; BString::`scalar deleting destructor'
??_GBString@@$$FQAEPAXI@Z:				; BString::`scalar deleting destructor'
;	.proc.def	D:I(II)

; Function Header:
; max stack depth = 2
; function size = 21 bytes
; local varsig tk = 0x0 
; Exception Information:
; 0 handlers, each consisting of filtered handlers

;	.formal.u4 1,"___flags$"
;	.formal.i4 0,"_this$" SIG: Optional C Binding Modifier(token:0x9D8D66).Optional C Binding Modifier(token:0x9D8D68).ptr.valueType (token:0x9D8D6B)

;	.proc.beg
	ldarg.0				; _this$
	call		??1BString@@$$FQAE@XZ
	ldarg.1				; ___flags$
	ldc.i.1		1		; u32 0x1
	and		
	brfalse.s	$L5936
	ldarg.0				; _this$
	call		??3@$$FYAXPAX@Z
$L5936:
	ldarg.0				; _this$
	br.s		$L6638
$L6638:
	ret		
 .end ??_GBString@@$$FQAEPAXI@Z				; BString::`scalar deleting destructor'
;	.proc.end.i4
text	ENDS
PUBLIC	??_GBString@@QAEPAXI@Z				; BString::`scalar deleting destructor'
PUBLIC	__mep@??_GBString@@$$FQAEPAXI@Z
;	COMDAT __mep@??_GBString@@$$FQAEPAXI@Z
data	SEGMENT
__mep@??_GBString@@$$FQAEPAXI@Z TOKEN 0600003B
; Function compile flags: /Odt
data	ENDS
;	COMDAT ??_GBString@@QAEPAXI@Z
text	SEGMENT
??_GBString@@QAEPAXI@Z PROC NEAR			; BString::`scalar deleting destructor', COMDAT
	jmp	DWORD PTR __mep@??_GBString@@$$FQAEPAXI@Z
??_GBString@@QAEPAXI@Z ENDP				; BString::`scalar deleting destructor'
.global	
	.bss
.local	,4
; Function compile flags: /Odt
	.text
.global	?IsEmpty@BStringArray@@$$FQBE_NXZ		; BStringArray::IsEmpty
?IsEmpty@BStringArray@@$$FQBE_NXZ:			; BStringArray::IsEmpty
;	.proc.def	D:I(I)

; Function Header:
; max stack depth = 1
; function size = 9 bytes
; local varsig tk = 0x0 
; Exception Information:
; 0 handlers, each consisting of filtered handlers

;	.formal.i4 0,"_this$" SIG: Optional C Binding Modifier(token:0x99213E).Optional C Binding Modifier(token:0x992140).ptr.Optional C Binding Modifier(token:0x992143).valueType (token:0x992145)

;	.proc.beg

; 99   : 	return list.IsEmpty();

	ldarg.0				; _this$
	call		?IsEmpty@BList@@$$FQBE_NXZ
	br.s		$L6652
$L6652:

; 100  : }

	ret		
 .end ?IsEmpty@BStringArray@@$$FQBE_NXZ			; BStringArray::IsEmpty
;	.proc.end.u1
text	ENDS
PUBLIC	?IsEmpty@BStringArray@@QBE_NXZ			; BStringArray::IsEmpty
PUBLIC	__mep@?IsEmpty@BStringArray@@$$FQBE_NXZ
;	COMDAT __mep@?IsEmpty@BStringArray@@$$FQBE_NXZ
data	SEGMENT
__mep@?IsEmpty@BStringArray@@$$FQBE_NXZ TOKEN 06000044
; Function compile flags: /Odt
data	ENDS
;	COMDAT ?IsEmpty@BStringArray@@QBE_NXZ
text	SEGMENT
?IsEmpty@BStringArray@@QBE_NXZ PROC NEAR		; BStringArray::IsEmpty, COMDAT
	jmp	DWORD PTR __mep@?IsEmpty@BStringArray@@$$FQBE_NXZ
?IsEmpty@BStringArray@@QBE_NXZ ENDP			; BStringArray::IsEmpty
; Function compile flags: /Odt
	.text
.global	?CountItems@BStringArray@@$$FQBEHXZ		; BStringArray::CountItems
?CountItems@BStringArray@@$$FQBEHXZ:			; BStringArray::CountItems
;	.proc.def	D:I(I)

; Function Header:
; max stack depth = 1
; function size = 9 bytes
; local varsig tk = 0x0 
; Exception Information:
; 0 handlers, each consisting of filtered handlers

;	.formal.i4 0,"_this$" SIG: Optional C Binding Modifier(token:0x99213E).Optional C Binding Modifier(token:0x992140).ptr.Optional C Binding Modifier(token:0x992143).valueType (token:0x992145)

;	.proc.beg

; 106  : 	return list.CountItems();

	ldarg.0				; _this$
	call		?CountItems@BList@@$$FQBEHXZ
	br.s		$L6665
$L6665:

; 107  : }

	ret		
 .end ?CountItems@BStringArray@@$$FQBEHXZ		; BStringArray::CountItems
;	.proc.end.i4
text	ENDS
PUBLIC	?CountItems@BStringArray@@QBEHXZ		; BStringArray::CountItems
PUBLIC	__mep@?CountItems@BStringArray@@$$FQBEHXZ
;	COMDAT __mep@?CountItems@BStringArray@@$$FQBEHXZ
data	SEGMENT
__mep@?CountItems@BStringArray@@$$FQBEHXZ TOKEN 06000045
; Function compile flags: /Odt
data	ENDS
;	COMDAT ?CountItems@BStringArray@@QBEHXZ
text	SEGMENT
?CountItems@BStringArray@@QBEHXZ PROC NEAR		; BStringArray::CountItems, COMDAT
	jmp	DWORD PTR __mep@?CountItems@BStringArray@@$$FQBEHXZ
?CountItems@BStringArray@@QBEHXZ ENDP			; BStringArray::CountItems
; Function compile flags: /Odt
	.text
.global	??4BStringArray@@$$FQAEAAV0@ABV0@@Z		; BStringArray::operator=
??4BStringArray@@$$FQAEAAV0@ABV0@@Z:			; BStringArray::operator=
;	.proc.def	D:I(II)

; Function Header:
; max stack depth = 2
; function size = 18 bytes
; local varsig tk = 0x0 
; Exception Information:
; 0 handlers, each consisting of filtered handlers

;	.formal.i4 1,"_array$" SIG: Optional C Binding Modifier(token:0x9D7666).ptr.Optional C Binding Modifier(token:0x9D7669).valueType (token:0x9D766B)
;	.formal.i4 0,"_this$" SIG: Optional C Binding Modifier(token:0x23C8A5E).Optional C Binding Modifier(token:0x23C8A60).ptr.valueType (token:0x23C8A63)

;	.proc.beg

; 113  : 	MakeEmpty();

	ldarg.0				; _this$
	call		?MakeEmpty@BStringArray@@$$FQAEXXZ

; 114  : 	AddArray(array);

	ldarg.0				; _this$
	ldarg.1				; _array$
	call		?AddArray@BStringArray@@$$FQAE_NABV1@@Z
	pop		

; 115  : 	return *this;

	ldarg.0				; _this$
	br.s		$L6677
$L6677:

; 116  : }

	ret		
 .end ??4BStringArray@@$$FQAEAAV0@ABV0@@Z		; BStringArray::operator=
;	.proc.end.i4
text	ENDS
PUBLIC	??4BStringArray@@QAEAAV0@ABV0@@Z		; BStringArray::operator=
PUBLIC	__mep@??4BStringArray@@$$FQAEAAV0@ABV0@@Z
;	COMDAT __mep@??4BStringArray@@$$FQAEAAV0@ABV0@@Z
data	SEGMENT
__mep@??4BStringArray@@$$FQAEAAV0@ABV0@@Z TOKEN 06000046
; Function compile flags: /Odt
data	ENDS
;	COMDAT ??4BStringArray@@QAEAAV0@ABV0@@Z
text	SEGMENT
??4BStringArray@@QAEAAV0@ABV0@@Z PROC NEAR		; BStringArray::operator=, COMDAT
	jmp	DWORD PTR __mep@??4BStringArray@@$$FQAEAAV0@ABV0@@Z
??4BStringArray@@QAEAAV0@ABV0@@Z ENDP			; BStringArray::operator=
; Function compile flags: /Odt
	.text
.global	??4BStringArray@@$$FQAEAAV0@PAPBD@Z		; BStringArray::operator=
??4BStringArray@@$$FQAEAAV0@PAPBD@Z:			; BStringArray::operator=
;	.proc.def	D:I(II)

; Function Header:
; max stack depth = 3
; function size = 34 bytes
; local varsig tk = 0x0 
; Exception Information:
; 0 handlers, each consisting of filtered handlers

;	.formal.i4 1,"_array$" SIG: ptr.ptr.Optional C Binding Modifier(token:0x9D7568).Optional C Binding Modifier(token:0x9D756A).i1
;	.formal.i4 0,"_this$" SIG: Optional C Binding Modifier(token:0x23C8A5E).Optional C Binding Modifier(token:0x23C8A60).ptr.valueType (token:0x23C8A63)

;	.proc.beg

; 122  : 	MakeEmpty();

	ldarg.0				; _this$
	call		?MakeEmpty@BStringArray@@$$FQAEXXZ

; 123  : 
; 124  : 	if(array)

	ldarg.1				; _array$
	brfalse.s	$L5997
$L5999:

; 125  : 	{
; 126  : 		while(*array)

	ldarg.1				; _array$
	ldind.i4	
	brfalse.s	$L5997

; 127  : 		{
; 128  : 			AddItem(*array);

	ldarg.0				; _this$
	ldarg.1				; _array$
	ldind.i4	
	ldc.i.0		0		; i32 0x0
	call		?AddItem@BStringArray@@$$FQAE_NPBDPAX@Z
	pop		

; 129  : 			array++;

	ldarg.1				; _array$
	ldc.i.4		4		; i32 0x4
	add		
	starg.s		1		; _array$

; 130  : 		}

	br.s		$L5999
$L5997:

; 131  : 	}
; 132  : 
; 133  : 	return *this;

	ldarg.0				; _this$
	br.s		$L6689
$L6689:

; 134  : }

	ret		
 .end ??4BStringArray@@$$FQAEAAV0@PAPBD@Z		; BStringArray::operator=
;	.proc.end.i4
text	ENDS
PUBLIC	??4BStringArray@@QAEAAV0@PAPBD@Z		; BStringArray::operator=
PUBLIC	__mep@??4BStringArray@@$$FQAEAAV0@PAPBD@Z
;	COMDAT __mep@??4BStringArray@@$$FQAEAAV0@PAPBD@Z
data	SEGMENT
__mep@??4BStringArray@@$$FQAEAAV0@PAPBD@Z TOKEN 06000047
; Function compile flags: /Odt
data	ENDS
;	COMDAT ??4BStringArray@@QAEAAV0@PAPBD@Z
text	SEGMENT
??4BStringArray@@QAEAAV0@PAPBD@Z PROC NEAR		; BStringArray::operator=, COMDAT
	jmp	DWORD PTR __mep@??4BStringArray@@$$FQAEAAV0@PAPBD@Z
??4BStringArray@@QAEAAV0@PAPBD@Z ENDP			; BStringArray::operator=
; Function compile flags: /Odt
	.text
.global	??YBStringArray@@$$FQAEAAV0@PBD@Z		; BStringArray::operator+=
??YBStringArray@@$$FQAEAAV0@PBD@Z:			; BStringArray::operator+=
;	.proc.def	D:I(II)

; Function Header:
; max stack depth = 3
; function size = 13 bytes
; local varsig tk = 0x0 
; Exception Information:
; 0 handlers, each consisting of filtered handlers

;	.formal.i4 1,"_string$" SIG: ptr.Optional C Binding Modifier(token:0x23C902F).Optional C Binding Modifier(token:0x23C9031).i1
;	.formal.i4 0,"_this$" SIG: Optional C Binding Modifier(token:0x23C8A5E).Optional C Binding Modifier(token:0x23C8A60).ptr.valueType (token:0x23C8A63)

;	.proc.beg

; 140  : 	AddItem(string);

	ldarg.0				; _this$
	ldarg.1				; _string$
	ldc.i.0		0		; i32 0x0
	call		?AddItem@BStringArray@@$$FQAE_NPBDPAX@Z
	pop		

; 141  : 	return *this;

	ldarg.0				; _this$
	br.s		$L6701
$L6701:

; 142  : }

	ret		
 .end ??YBStringArray@@$$FQAEAAV0@PBD@Z			; BStringArray::operator+=
;	.proc.end.i4
text	ENDS
PUBLIC	??YBStringArray@@QAEAAV0@PBD@Z			; BStringArray::operator+=
PUBLIC	__mep@??YBStringArray@@$$FQAEAAV0@PBD@Z
;	COMDAT __mep@??YBStringArray@@$$FQAEAAV0@PBD@Z
data	SEGMENT
__mep@??YBStringArray@@$$FQAEAAV0@PBD@Z TOKEN 06000048
; Function compile flags: /Odt
data	ENDS
;	COMDAT ??YBStringArray@@QAEAAV0@PBD@Z
text	SEGMENT
??YBStringArray@@QAEAAV0@PBD@Z PROC NEAR		; BStringArray::operator+=, COMDAT
	jmp	DWORD PTR __mep@??YBStringArray@@$$FQAEAAV0@PBD@Z
??YBStringArray@@QAEAAV0@PBD@Z ENDP			; BStringArray::operator+=
; Function compile flags: /Odt
	.text
.global	??YBStringArray@@$$FQAEAAV0@ABVBString@@@Z	; BStringArray::operator+=
??YBStringArray@@$$FQAEAAV0@ABVBString@@@Z:		; BStringArray::operator+=
;	.proc.def	D:I(II)

; Function Header:
; max stack depth = 3
; function size = 13 bytes
; local varsig tk = 0x0 
; Exception Information:
; 0 handlers, each consisting of filtered handlers

;	.formal.i4 1,"_string$" SIG: Optional C Binding Modifier(token:0x990B3E).ptr.Optional C Binding Modifier(token:0x990B41).valueType (token:0x990B43)
;	.formal.i4 0,"_this$" SIG: Optional C Binding Modifier(token:0x23C8A5E).Optional C Binding Modifier(token:0x23C8A60).ptr.valueType (token:0x23C8A63)

;	.proc.beg

; 148  : 	AddItem(string);

	ldarg.0				; _this$
	ldarg.1				; _string$
	ldc.i.0		0		; i32 0x0
	call		?AddItem@BStringArray@@$$FQAE_NABVBString@@PAX@Z
	pop		

; 149  : 	return *this;

	ldarg.0				; _this$
	br.s		$L6713
$L6713:

; 150  : }

	ret		
 .end ??YBStringArray@@$$FQAEAAV0@ABVBString@@@Z	; BStringArray::operator+=
;	.proc.end.i4
text	ENDS
PUBLIC	??YBStringArray@@QAEAAV0@ABVBString@@@Z		; BStringArray::operator+=
PUBLIC	__mep@??YBStringArray@@$$FQAEAAV0@ABVBString@@@Z
;	COMDAT __mep@??YBStringArray@@$$FQAEAAV0@ABVBString@@@Z
data	SEGMENT
__mep@??YBStringArray@@$$FQAEAAV0@ABVBString@@@Z TOKEN 06000049
; Function compile flags: /Odt
data	ENDS
;	COMDAT ??YBStringArray@@QAEAAV0@ABVBString@@@Z
text	SEGMENT
??YBStringArray@@QAEAAV0@ABVBString@@@Z PROC NEAR	; BStringArray::operator+=, COMDAT
	jmp	DWORD PTR __mep@??YBStringArray@@$$FQAEAAV0@ABVBString@@@Z
??YBStringArray@@QAEAAV0@ABVBString@@@Z ENDP		; BStringArray::operator+=
; Function compile flags: /Odt
	.text
.global	??YBStringArray@@$$FQAEAAV0@ABV0@@Z		; BStringArray::operator+=
??YBStringArray@@$$FQAEAAV0@ABV0@@Z:			; BStringArray::operator+=
;	.proc.def	D:I(II)

; Function Header:
; max stack depth = 2
; function size = 12 bytes
; local varsig tk = 0x0 
; Exception Information:
; 0 handlers, each consisting of filtered handlers

;	.formal.i4 1,"_array$" SIG: Optional C Binding Modifier(token:0x9D7666).ptr.Optional C Binding Modifier(token:0x9D7669).valueType (token:0x9D766B)
;	.formal.i4 0,"_this$" SIG: Optional C Binding Modifier(token:0x23C8A5E).Optional C Binding Modifier(token:0x23C8A60).ptr.valueType (token:0x23C8A63)

;	.proc.beg

; 156  : 	AddArray(array);

	ldarg.0				; _this$
	ldarg.1				; _array$
	call		?AddArray@BStringArray@@$$FQAE_NABV1@@Z
	pop		

; 157  : 	return *this;

	ldarg.0				; _this$
	br.s		$L6725
$L6725:

; 158  : }

	ret		
 .end ??YBStringArray@@$$FQAEAAV0@ABV0@@Z		; BStringArray::operator+=
;	.proc.end.i4
text	ENDS
PUBLIC	??YBStringArray@@QAEAAV0@ABV0@@Z		; BStringArray::operator+=
PUBLIC	__mep@??YBStringArray@@$$FQAEAAV0@ABV0@@Z
;	COMDAT __mep@??YBStringArray@@$$FQAEAAV0@ABV0@@Z
data	SEGMENT
__mep@??YBStringArray@@$$FQAEAAV0@ABV0@@Z TOKEN 0600004A
; Function compile flags: /Odt
data	ENDS
;	COMDAT ??YBStringArray@@QAEAAV0@ABV0@@Z
text	SEGMENT
??YBStringArray@@QAEAAV0@ABV0@@Z PROC NEAR		; BStringArray::operator+=, COMDAT
	jmp	DWORD PTR __mep@??YBStringArray@@$$FQAEAAV0@ABV0@@Z
??YBStringArray@@QAEAAV0@ABV0@@Z ENDP			; BStringArray::operator+=
; Function compile flags: /Odt
	.text
.global	??YBStringArray@@$$FQAEAAV0@PAPBD@Z		; BStringArray::operator+=
??YBStringArray@@$$FQAEAAV0@PAPBD@Z:			; BStringArray::operator+=
;	.proc.def	D:I(II)

; Function Header:
; max stack depth = 3
; function size = 28 bytes
; local varsig tk = 0x0 
; Exception Information:
; 0 handlers, each consisting of filtered handlers

;	.formal.i4 1,"_array$" SIG: ptr.ptr.Optional C Binding Modifier(token:0x9D7568).Optional C Binding Modifier(token:0x9D756A).i1
;	.formal.i4 0,"_this$" SIG: Optional C Binding Modifier(token:0x23C8A5E).Optional C Binding Modifier(token:0x23C8A60).ptr.valueType (token:0x23C8A63)

;	.proc.beg

; 164  : 	if(array)

	ldarg.1				; _array$
	brfalse.s	$L6017
$L6019:

; 165  : 	{
; 166  : 		while(*array)

	ldarg.1				; _array$
	ldind.i4	
	brfalse.s	$L6017

; 167  : 		{
; 168  : 			AddItem(*array);

	ldarg.0				; _this$
	ldarg.1				; _array$
	ldind.i4	
	ldc.i.0		0		; i32 0x0
	call		?AddItem@BStringArray@@$$FQAE_NPBDPAX@Z
	pop		

; 169  : 			array++;

	ldarg.1				; _array$
	ldc.i.4		4		; i32 0x4
	add		
	starg.s		1		; _array$

; 170  : 		}

	br.s		$L6019
$L6017:

; 171  : 	}
; 172  : 
; 173  : 	return *this;

	ldarg.0				; _this$
	br.s		$L6737
$L6737:

; 174  : }

	ret		
 .end ??YBStringArray@@$$FQAEAAV0@PAPBD@Z		; BStringArray::operator+=
;	.proc.end.i4
text	ENDS
PUBLIC	??YBStringArray@@QAEAAV0@PAPBD@Z		; BStringArray::operator+=
PUBLIC	__mep@??YBStringArray@@$$FQAEAAV0@PAPBD@Z
;	COMDAT __mep@??YBStringArray@@$$FQAEAAV0@PAPBD@Z
data	SEGMENT
__mep@??YBStringArray@@$$FQAEAAV0@PAPBD@Z TOKEN 0600004B
; Function compile flags: /Odt
data	ENDS
;	COMDAT ??YBStringArray@@QAEAAV0@PAPBD@Z
text	SEGMENT
??YBStringArray@@QAEAAV0@PAPBD@Z PROC NEAR		; BStringArray::operator+=, COMDAT
	jmp	DWORD PTR __mep@??YBStringArray@@$$FQAEAAV0@PAPBD@Z
??YBStringArray@@QAEAAV0@PAPBD@Z ENDP			; BStringArray::operator+=
.global	
	.bss
.local	,4
.local	$T6769,4
; Function compile flags: /Odt
	.text
.global	?AddItem@BStringArray@@$$FQAE_NPBDPAX@Z		; BStringArray::AddItem
?AddItem@BStringArray@@$$FQAE_NPBDPAX@Z:		; BStringArray::AddItem
;	.proc.def	D:I(III)

; Function Header:
; max stack depth = 2
; function size = 123 bytes
; local varsig tk = 0x11000010 
; Exception Information:
; 1 handlers, each consisting of filtered handlers

;	.formal.i4 1,"_item$" SIG: ptr.Optional C Binding Modifier(token:0x23C902F).Optional C Binding Modifier(token:0x23C9031).i1
;	.formal.i4 2,"_attach_data$" SIG: ptr.void
;	.formal.i4 0,"_this$" SIG: Optional C Binding Modifier(token:0x23C8A5E).Optional C Binding Modifier(token:0x23C8A60).ptr.valueType (token:0x23C8A63)
;	.local.i4 5,"$T6762" SIG: ptr.void
;	.local.i4 4,"$T6763" SIG: ptr.void
;	.local.i4 0,"_data$" SIG: ptr.valueType (token:0x23C8863)
;	.local.i4 1,"$T6028" SIG: ptr.valueType (token:0x23C8863)
;	.local.i4 6,"$T6030" SIG: ptr.valueType (token:0x23C8863)
;	.local.i4 3,"$T6035" SIG: ptr.valueType (token:0x23C8863)
;	.local.i4 2,"$T6039" SIG: ptr.valueType (token:0x23C8863)

;	.proc.beg

; 180  : 	__string_node__ *data = new __string_node__;

	ldc.i.8		8		; u32 0x8
	call		??2@$$FYAPAXI@Z
	stloc.1				; $T6028
$L6764:
	ldloc.1				; $T6028
	brfalse.s	$L6741
	ldloc.1				; $T6028
	call		??0__string_node__@@$$FQAE@XZ
	br.s		$L6742
$L6741:
	ldc.i.0		0		; i32 0x0
$L6742:
	stloc.s		6		; $T6030
	leave.s		$L6765
$L6766:
	ldloc.1				; $T6028
	call		??3@$$FYAXPAX@Z
	endfinally	
$L6765:
	ldloc.s		6		; $T6030
	stloc.0				; _data$

; 181  : 	if(!data || !data->str) {if(data) delete data; return false;}

	ldloc.0				; _data$
	brfalse.s	$L6032
	ldloc.0				; _data$
	unaligned	1		; u32 0x1
	ldind.i4	
	brtrue.s	$L6031
$L6032:
	ldloc.0				; _data$
	brfalse.s	$L6033
	ldloc.0				; _data$
	stloc.3				; $T6035
	ldloc.3				; $T6035
	brfalse.s	$L6743
	ldloc.3				; $T6035
	ldc.i.1		1		; u32 0x1
	call		??_G__string_node__@@$$FQAEPAXI@Z
	stloc.s		5		; $T6762
	br.s		$L6033
$L6743:
	ldc.i.0		0		; i32 0x0
	stloc.s		5		; $T6762
$L6033:
	ldc.i.0		0		; u8 0x0
	br.s		$L6767
$L6031:

; 182  : 
; 183  : 	data->str->SetTo(item);

	ldloc.0				; _data$
	unaligned	1		; u32 0x1
	ldind.i4	
	ldarg.1				; _item$
	call		?SetTo@BString@@$$FQAEAAV1@PBD@Z
	pop		

; 184  : 	data->data = attach_data;

	ldloc.0				; _data$
	ldc.i.4		4		; i32 0x4
	add		
	ldarg.2				; _attach_data$
	unaligned	1		; u32 0x1
	stind.i4	

; 185  : 
; 186  : 	if(!list.AddItem((void*)data))

	ldarg.0				; _this$
	ldloc.0				; _data$
	call		?AddItem@BList@@$$FQAE_NPAX@Z
	brtrue.s	$L6037

; 187  : 	{
; 188  : 		delete data;

	ldloc.0				; _data$
	stloc.2				; $T6039
	ldloc.2				; $T6039
	brfalse.s	$L6745
	ldloc.2				; $T6039
	ldc.i.1		1		; u32 0x1
	call		??_G__string_node__@@$$FQAEPAXI@Z
	stloc.s		4		; $T6763
	br.s		$L6746
$L6745:
	ldc.i.0		0		; i32 0x0
	stloc.s		4		; $T6763
$L6746:

; 189  : 		return false;

	ldc.i.0		0		; u8 0x0
	br.s		$L6767
$L6037:

; 190  : 	}
; 191  : 
; 192  : 	return true;

	ldc.i.1		1		; u8 0x1
	br.s		$L6767
$L6767:

; 193  : }

	ret		
 .end ?AddItem@BStringArray@@$$FQAE_NPBDPAX@Z		; BStringArray::AddItem
;	.proc.end.u1
text	ENDS
PUBLIC	?AddItem@BStringArray@@QAE_NPBDPAX@Z		; BStringArray::AddItem
PUBLIC	__mep@?AddItem@BStringArray@@$$FQAE_NPBDPAX@Z
;	COMDAT __mep@?AddItem@BStringArray@@$$FQAE_NPBDPAX@Z
data	SEGMENT
__mep@?AddItem@BStringArray@@$$FQAE_NPBDPAX@Z TOKEN 0600004C
; Function compile flags: /Odt
data	ENDS
;	COMDAT ?AddItem@BStringArray@@QAE_NPBDPAX@Z
text	SEGMENT
?AddItem@BStringArray@@QAE_NPBDPAX@Z PROC NEAR		; BStringArray::AddItem, COMDAT
	jmp	DWORD PTR __mep@?AddItem@BStringArray@@$$FQAE_NPBDPAX@Z
?AddItem@BStringArray@@QAE_NPBDPAX@Z ENDP		; BStringArray::AddItem
	.bss
.local	$T6793,4
; Function compile flags: /Odt
	.text
	.comdat	any, ??0__string_node__@@$$FQAE@XZ
.global	??0__string_node__@@$$FQAE@XZ			; __string_node__::__string_node__
??0__string_node__@@$$FQAE@XZ:				; __string_node__::__string_node__
;	.proc.def	D:I(I)

; Function Header:
; max stack depth = 2
; function size = 46 bytes
; local varsig tk = 0x11000011 
; Exception Information:
; 1 handlers, each consisting of filtered handlers

;	.formal.i4 0,"_this$" SIG: Optional C Binding Modifier(token:0x9D75E6).Optional C Binding Modifier(token:0x9D75E8).ptr.valueType (token:0x9D75EB)
;	.local.i4 0,"$T5923" SIG: ptr.valueType (token:0x99183F)
;	.local.i4 1,"$T5926" SIG: ptr.valueType (token:0x99183F)

;	.proc.beg

; 38   : 	{
; 39   :         str = new BString();

	ldc.i4.s	16		; u32 0x10
	call		??2@$$FYAPAXI@Z
	stloc.0				; $T5923
$L6789:
	ldloc.0				; $T5923
	brfalse.s	$L6773
	ldloc.0				; $T5923
	call		??0BString@@$$FQAE@XZ
	br.s		$L6774
$L6773:
	ldc.i.0		0		; i32 0x0
$L6774:
	stloc.1				; $T5926
	leave.s		$L6790
$L6791:
	ldloc.0				; $T5923
	call		??3@$$FYAXPAX@Z
	endfinally	
$L6790:
	ldarg.0				; _this$
	ldloc.1				; $T5926
	unaligned	1		; u32 0x1
	stind.i4	

; 40   : 		data = NULL;

	ldarg.0				; _this$
	ldc.i.4		4		; i32 0x4
	add		
	ldc.i.0		0		; i32 0x0
	unaligned	1		; u32 0x1
	stind.i4	

; 41   : 	}

	ldarg.0				; _this$
$L6792:
	ret		
 .end ??0__string_node__@@$$FQAE@XZ			; __string_node__::__string_node__
;	.proc.end.i4
text	ENDS
PUBLIC	??0__string_node__@@QAE@XZ			; __string_node__::__string_node__
PUBLIC	__mep@??0__string_node__@@$$FQAE@XZ
;	COMDAT __mep@??0__string_node__@@$$FQAE@XZ
data	SEGMENT
__mep@??0__string_node__@@$$FQAE@XZ TOKEN 06000039
; Function compile flags: /Odt
data	ENDS
;	COMDAT ??0__string_node__@@QAE@XZ
text	SEGMENT
??0__string_node__@@QAE@XZ PROC NEAR			; __string_node__::__string_node__, COMDAT
	jmp	DWORD PTR __mep@??0__string_node__@@$$FQAE@XZ
??0__string_node__@@QAE@XZ ENDP				; __string_node__::__string_node__
	.bss
.local	$T6825,4
; Function compile flags: /Odt
	.text
.global	?AddItem@BStringArray@@$$FQAE_NPBDHPAX@Z	; BStringArray::AddItem
?AddItem@BStringArray@@$$FQAE_NPBDHPAX@Z:		; BStringArray::AddItem
;	.proc.def	D:I(IIII)

; Function Header:
; max stack depth = 3
; function size = 124 bytes
; local varsig tk = 0x11000010 
; Exception Information:
; 1 handlers, each consisting of filtered handlers

;	.formal.i4 1,"_item$" SIG: ptr.Optional C Binding Modifier(token:0x23C902F).Optional C Binding Modifier(token:0x23C9031).i1
;	.formal.i4 2,"_atIndex$"
;	.formal.i4 3,"_attach_data$" SIG: ptr.void
;	.formal.i4 0,"_this$" SIG: Optional C Binding Modifier(token:0x23C8A5E).Optional C Binding Modifier(token:0x23C8A60).ptr.valueType (token:0x23C8A63)
;	.local.i4 5,"$T6819" SIG: ptr.void
;	.local.i4 4,"$T6820" SIG: ptr.void
;	.local.i4 0,"_data$" SIG: ptr.valueType (token:0x23C8863)
;	.local.i4 1,"$T6048" SIG: ptr.valueType (token:0x23C8863)
;	.local.i4 6,"$T6050" SIG: ptr.valueType (token:0x23C8863)
;	.local.i4 3,"$T6055" SIG: ptr.valueType (token:0x23C8863)
;	.local.i4 2,"$T6059" SIG: ptr.valueType (token:0x23C8863)

;	.proc.beg

; 198  : 	__string_node__ *data = new __string_node__;

	ldc.i.8		8		; u32 0x8
	call		??2@$$FYAPAXI@Z
	stloc.1				; $T6048
$L6821:
	ldloc.1				; $T6048
	brfalse.s	$L6798
	ldloc.1				; $T6048
	call		??0__string_node__@@$$FQAE@XZ
	br.s		$L6799
$L6798:
	ldc.i.0		0		; i32 0x0
$L6799:
	stloc.s		6		; $T6050
	leave.s		$L6822
$L6823:
	ldloc.1				; $T6048
	call		??3@$$FYAXPAX@Z
	endfinally	
$L6822:
	ldloc.s		6		; $T6050
	stloc.0				; _data$

; 199  : 	if(!data || !data->str) {if(data) delete data; return false;}

	ldloc.0				; _data$
	brfalse.s	$L6052
	ldloc.0				; _data$
	unaligned	1		; u32 0x1
	ldind.i4	
	brtrue.s	$L6051
$L6052:
	ldloc.0				; _data$
	brfalse.s	$L6053
	ldloc.0				; _data$
	stloc.3				; $T6055
	ldloc.3				; $T6055
	brfalse.s	$L6800
	ldloc.3				; $T6055
	ldc.i.1		1		; u32 0x1
	call		??_G__string_node__@@$$FQAEPAXI@Z
	stloc.s		5		; $T6819
	br.s		$L6053
$L6800:
	ldc.i.0		0		; i32 0x0
	stloc.s		5		; $T6819
$L6053:
	ldc.i.0		0		; u8 0x0
	br.s		$L6824
$L6051:

; 200  : 
; 201  : 	data->str->SetTo(item);

	ldloc.0				; _data$
	unaligned	1		; u32 0x1
	ldind.i4	
	ldarg.1				; _item$
	call		?SetTo@BString@@$$FQAEAAV1@PBD@Z
	pop		

; 202  : 	data->data = attach_data;

	ldloc.0				; _data$
	ldc.i.4		4		; i32 0x4
	add		
	ldarg.3				; _attach_data$
	unaligned	1		; u32 0x1
	stind.i4	

; 203  : 
; 204  : 	if(!list.AddItem((void*)data, atIndex))

	ldarg.0				; _this$
	ldloc.0				; _data$
	ldarg.2				; _atIndex$
	call		?AddItem@BList@@$$FQAE_NPAXH@Z
	brtrue.s	$L6057

; 205  : 	{
; 206  : 		delete data;

	ldloc.0				; _data$
	stloc.2				; $T6059
	ldloc.2				; $T6059
	brfalse.s	$L6802
	ldloc.2				; $T6059
	ldc.i.1		1		; u32 0x1
	call		??_G__string_node__@@$$FQAEPAXI@Z
	stloc.s		4		; $T6820
	br.s		$L6803
$L6802:
	ldc.i.0		0		; i32 0x0
	stloc.s		4		; $T6820
$L6803:

; 207  : 		return false;

	ldc.i.0		0		; u8 0x0
	br.s		$L6824
$L6057:

; 208  : 	}
; 209  : 
; 210  : 	return true;

	ldc.i.1		1		; u8 0x1
	br.s		$L6824
$L6824:

; 211  : }

	ret		
 .end ?AddItem@BStringArray@@$$FQAE_NPBDHPAX@Z		; BStringArray::AddItem
;	.proc.end.u1
text	ENDS
PUBLIC	?AddItem@BStringArray@@QAE_NPBDHPAX@Z		; BStringArray::AddItem
PUBLIC	__mep@?AddItem@BStringArray@@$$FQAE_NPBDHPAX@Z
;	COMDAT __mep@?AddItem@BStringArray@@$$FQAE_NPBDHPAX@Z
data	SEGMENT
__mep@?AddItem@BStringArray@@$$FQAE_NPBDHPAX@Z TOKEN 0600004D
; Function compile flags: /Odt
data	ENDS
;	COMDAT ?AddItem@BStringArray@@QAE_NPBDHPAX@Z
text	SEGMENT
?AddItem@BStringArray@@QAE_NPBDHPAX@Z PROC NEAR		; BStringArray::AddItem, COMDAT
	jmp	DWORD PTR __mep@?AddItem@BStringArray@@$$FQAE_NPBDHPAX@Z
?AddItem@BStringArray@@QAE_NPBDHPAX@Z ENDP		; BStringArray::AddItem
; Function compile flags: /Odt
	.text
.global	?AddItem@BStringArray@@$$FQAE_NABVBString@@PAX@Z ; BStringArray::AddItem
?AddItem@BStringArray@@$$FQAE_NABVBString@@PAX@Z:	; BStringArray::AddItem
;	.proc.def	D:I(III)

; Function Header:
; max stack depth = 3
; function size = 16 bytes
; local varsig tk = 0x0 
; Exception Information:
; 0 handlers, each consisting of filtered handlers

;	.formal.i4 1,"_item$" SIG: Optional C Binding Modifier(token:0x990B3E).ptr.Optional C Binding Modifier(token:0x990B41).valueType (token:0x990B43)
;	.formal.i4 2,"_attach_data$" SIG: ptr.void
;	.formal.i4 0,"_this$" SIG: Optional C Binding Modifier(token:0x23C8A5E).Optional C Binding Modifier(token:0x23C8A60).ptr.valueType (token:0x23C8A63)

;	.proc.beg

; 217  :     return AddItem(item.String(), attach_data);

	ldarg.0				; _this$
	ldarg.1				; _item$
	call		?String@BString@@$$FQBEPBDXZ
	ldarg.2				; _attach_data$
	call		?AddItem@BStringArray@@$$FQAE_NPBDPAX@Z
	br.s		$L6837
$L6837:

; 218  : }

	ret		
 .end ?AddItem@BStringArray@@$$FQAE_NABVBString@@PAX@Z	; BStringArray::AddItem
;	.proc.end.u1
text	ENDS
PUBLIC	?AddItem@BStringArray@@QAE_NABVBString@@PAX@Z	; BStringArray::AddItem
PUBLIC	__mep@?AddItem@BStringArray@@$$FQAE_NABVBString@@PAX@Z
;	COMDAT __mep@?AddItem@BStringArray@@$$FQAE_NABVBString@@PAX@Z
data	SEGMENT
__mep@?AddItem@BStringArray@@$$FQAE_NABVBString@@PAX@Z TOKEN 0600004E
; Function compile flags: /Odt
data	ENDS
;	COMDAT ?AddItem@BStringArray@@QAE_NABVBString@@PAX@Z
text	SEGMENT
?AddItem@BStringArray@@QAE_NABVBString@@PAX@Z PROC NEAR	; BStringArray::AddItem, COMDAT
	jmp	DWORD PTR __mep@?AddItem@BStringArray@@$$FQAE_NABVBString@@PAX@Z
?AddItem@BStringArray@@QAE_NABVBString@@PAX@Z ENDP	; BStringArray::AddItem
; Function compile flags: /Odt
	.text
.global	?AddItem@BStringArray@@$$FQAE_NABVBString@@HPAX@Z ; BStringArray::AddItem
?AddItem@BStringArray@@$$FQAE_NABVBString@@HPAX@Z:	; BStringArray::AddItem
;	.proc.def	D:I(IIII)

; Function Header:
; max stack depth = 4
; function size = 17 bytes
; local varsig tk = 0x0 
; Exception Information:
; 0 handlers, each consisting of filtered handlers

;	.formal.i4 1,"_item$" SIG: Optional C Binding Modifier(token:0x990B3E).ptr.Optional C Binding Modifier(token:0x990B41).valueType (token:0x990B43)
;	.formal.i4 2,"_atIndex$"
;	.formal.i4 3,"_attach_data$" SIG: ptr.void
;	.formal.i4 0,"_this$" SIG: Optional C Binding Modifier(token:0x23C8A5E).Optional C Binding Modifier(token:0x23C8A60).ptr.valueType (token:0x23C8A63)

;	.proc.beg

; 224  :     return AddItem(item.String(), atIndex, attach_data);

	ldarg.0				; _this$
	ldarg.1				; _item$
	call		?String@BString@@$$FQBEPBDXZ
	ldarg.2				; _atIndex$
	ldarg.3				; _attach_data$
	call		?AddItem@BStringArray@@$$FQAE_NPBDHPAX@Z
	br.s		$L6849
$L6849:

; 225  : }

	ret		
 .end ?AddItem@BStringArray@@$$FQAE_NABVBString@@HPAX@Z	; BStringArray::AddItem
;	.proc.end.u1
text	ENDS
PUBLIC	?AddItem@BStringArray@@QAE_NABVBString@@HPAX@Z	; BStringArray::AddItem
PUBLIC	__mep@?AddItem@BStringArray@@$$FQAE_NABVBString@@HPAX@Z
;	COMDAT __mep@?AddItem@BStringArray@@$$FQAE_NABVBString@@HPAX@Z
data	SEGMENT
__mep@?AddItem@BStringArray@@$$FQAE_NABVBString@@HPAX@Z TOKEN 0600004F
; Function compile flags: /Odt
data	ENDS
;	COMDAT ?AddItem@BStringArray@@QAE_NABVBString@@HPAX@Z
text	SEGMENT
?AddItem@BStringArray@@QAE_NABVBString@@HPAX@Z PROC NEAR ; BStringArray::AddItem, COMDAT
	jmp	DWORD PTR __mep@?AddItem@BStringArray@@$$FQAE_NABVBString@@HPAX@Z
?AddItem@BStringArray@@QAE_NABVBString@@HPAX@Z ENDP	; BStringArray::AddItem
.global	__unep@??1BStringArray@@$$FQAE@XZ
.global	
.global	
	.bss
.local	,4
.local	,4
.local	$T6886,4
	.rdata
	.comdat	any, __unep@??1BStringArray@@$$FQAE@XZ

__unep@??1BStringArray@@$$FQAE@XZ:
	DD	??1BStringArray@@QAE@XZ
; Function compile flags: /Odt
	.text
.global	?AddArray@BStringArray@@$$FQAE_NABV1@@Z		; BStringArray::AddArray
?AddArray@BStringArray@@$$FQAE_NABV1@@Z:		; BStringArray::AddArray
;	.proc.def	D:I(II)

; Function Header:
; max stack depth = 4
; function size = 239 bytes
; local varsig tk = 0x11000014 
; Exception Information:
; 6 handlers, each consisting of filtered handlers

;	.formal.i4 1,"_array$" SIG: Optional C Binding Modifier(token:0x9D7666).ptr.Optional C Binding Modifier(token:0x9D7669).valueType (token:0x9D766B)
;	.formal.i4 0,"_this$" SIG: Optional C Binding Modifier(token:0x23C8A5E).Optional C Binding Modifier(token:0x23C8A60).ptr.valueType (token:0x23C8A63)
;	.local.u1 4,"$T6853"
;	.local.u1 3,"$T6854"
;	.local.u1 2,"$T6855"
;	.local.mb20  5,"__array$" SIG: valueType (token:0x990AC2)
;	.local.i4 1,"_i$6077"
;	.local.i4 0,"_node$6081" SIG: ptr.Optional C Binding Modifier(token:0x9D8B03).valueType (token:0x9D8B05)

;	.proc.beg

; 231  : 	if(array.list.IsEmpty()) return false;

	ldarg.1				; _array$
	call		?IsEmpty@BList@@$$FQBE_NXZ
	brfalse.s	$L6075
	ldc.i.0		0		; u8 0x0
	br		$L6883
$L6075:

; 232  : 
; 233  :     BStringArray _array;

	ldloca.s	5		; __array$
	call		??0BStringArray@@$$FQAE@XZ
	pop		
$L6870:

; 234  : 	for(b_int32 i = 0; i < array.list.CountItems(); i++)

	ldc.i.0		0		; i32 0x0
	stloc.1				; _i$6077
	leave.s		$L6078

; 245  : 	}
; 246  : 
; 247  : 	return false;

	leave.s		$L6079
$L6871:
	ldsfld		__unep@??1BStringArray@@$$FQAE@XZ
	ldloca.s	5		; __array$
	call		?__CxxCallUnwindDtor@@$$J0YAXP6EXPAX@Z0@Z
	endfinally	
$L6079:

; 234  : 	for(b_int32 i = 0; i < array.list.CountItems(); i++)

	ldloc.1				; _i$6077
	ldc.i.1		1		; i32 0x1
	add		
	stloc.1				; _i$6077

; 245  : 	}
; 246  : 
; 247  : 	return false;

	leave.s		$L6078
$L6872:
	ldsfld		__unep@??1BStringArray@@$$FQAE@XZ
	ldloca.s	5		; __array$
	call		?__CxxCallUnwindDtor@@$$J0YAXP6EXPAX@Z0@Z
	endfinally	
$L6078:

; 234  : 	for(b_int32 i = 0; i < array.list.CountItems(); i++)

	ldloc.1				; _i$6077
	ldarg.1				; _array$
	call		?CountItems@BList@@$$FQBEHXZ
	blt.s		$L6880
	leave.s		$L6080
$L6880:

; 235  : 	{
; 236  : 		const __string_node__ *node = (const __string_node__*)array.list.ItemAt(i);

	ldarg.1				; _array$
	ldloc.1				; _i$6077
	call		?ItemAt@BList@@$$FQBEPAXH@Z
	stloc.0				; _node$6081

; 237  : 		if(!node || !node->str) continue;

	ldloc.0				; _node$6081
	brfalse.s	$L6084
	ldloc.0				; _node$6081
	unaligned	1		; u32 0x1
	ldind.i4	
	brtrue.s	$L6083
$L6084:
	leave.s		$L6079
$L6083:

; 238  :         if(_array.AddItem(node->str->String(), node->data) == false) return false;

	ldloca.s	5		; __array$
	ldloc.0				; _node$6081
	unaligned	1		; u32 0x1
	ldind.i4	
	call		?String@BString@@$$FQBEPBDXZ
	ldloc.0				; _node$6081
	ldc.i.4		4		; i32 0x4
	add		
	unaligned	1		; u32 0x1
	ldind.i4	
	call		?AddItem@BStringArray@@$$FQAE_NPBDPAX@Z
	brfalse.s	$L6881
	leave.s		$L6085
$L6881:
	ldc.i.0		0		; u8 0x0
	stloc.s		4		; $T6853
	leave.s		$L6873
$L6874:
	ldsfld		__unep@??1BStringArray@@$$FQAE@XZ
	ldloca.s	5		; __array$
	call		?__CxxCallUnwindDtor@@$$J0YAXP6EXPAX@Z0@Z
	endfinally	
$L6873:
	ldloca.s	5		; __array$
	call		??1BStringArray@@$$FQAE@XZ
	ldloc.s		4		; $T6853
	br.s		$L6883
$L6085:

; 239  : 	}

	leave.s		$L6079

; 245  : 	}
; 246  : 
; 247  : 	return false;

	leave.s		$L6080
$L6875:
	ldsfld		__unep@??1BStringArray@@$$FQAE@XZ
	ldloca.s	5		; __array$
	call		?__CxxCallUnwindDtor@@$$J0YAXP6EXPAX@Z0@Z
	endfinally	
$L6080:

; 240  : 
; 241  : 	if(list.AddList(&_array.list))

	ldarg.0				; _this$
	ldloca.s	5		; __array$
	call		?AddList@BList@@$$FQAE_NPBV1@@Z
	brtrue.s	$L6882
	leave.s		$L6087
$L6882:

; 242  : 	{
; 243  : 		_array.list.MakeEmpty();

	ldloca.s	5		; __array$
	call		?MakeEmpty@BList@@$$FQAEXXZ

; 244  : 		return true;

	ldc.i.1		1		; u8 0x1
	stloc.3				; $T6854
	leave.s		$L6876
$L6877:
	ldsfld		__unep@??1BStringArray@@$$FQAE@XZ
	ldloca.s	5		; __array$
	call		?__CxxCallUnwindDtor@@$$J0YAXP6EXPAX@Z0@Z
	endfinally	
$L6876:
	ldloca.s	5		; __array$
	call		??1BStringArray@@$$FQAE@XZ
	ldloc.3				; $T6854
	br.s		$L6883
$L6087:

; 245  : 	}
; 246  : 
; 247  : 	return false;

	ldc.i.0		0		; u8 0x0
	stloc.2				; $T6855
	leave.s		$L6878
$L6879:
	ldsfld		__unep@??1BStringArray@@$$FQAE@XZ
	ldloca.s	5		; __array$
	call		?__CxxCallUnwindDtor@@$$J0YAXP6EXPAX@Z0@Z
	endfinally	
$L6878:
	ldloca.s	5		; __array$
	call		??1BStringArray@@$$FQAE@XZ
	ldloc.2				; $T6855
	br.s		$L6883
$L6883:

; 248  : }

	ret		
 .end ?AddArray@BStringArray@@$$FQAE_NABV1@@Z		; BStringArray::AddArray
;	.proc.end.u1
text	ENDS
PUBLIC	?AddArray@BStringArray@@QAE_NABV1@@Z		; BStringArray::AddArray
PUBLIC	__mep@?AddArray@BStringArray@@$$FQAE_NABV1@@Z
;	COMDAT __mep@?AddArray@BStringArray@@$$FQAE_NABV1@@Z
data	SEGMENT
__mep@?AddArray@BStringArray@@$$FQAE_NABV1@@Z TOKEN 06000050
; Function compile flags: /Odt
data	ENDS
;	COMDAT ?AddArray@BStringArray@@QAE_NABV1@@Z
text	SEGMENT
?AddArray@BStringArray@@QAE_NABV1@@Z PROC NEAR		; BStringArray::AddArray, COMDAT
	jmp	DWORD PTR __mep@?AddArray@BStringArray@@$$FQAE_NABV1@@Z
?AddArray@BStringArray@@QAE_NABV1@@Z ENDP		; BStringArray::AddArray
	.bss
.local	$T6921,4
; Function compile flags: /Odt
	.text
.global	?AddArray@BStringArray@@$$FQAE_NABV1@H@Z	; BStringArray::AddArray
?AddArray@BStringArray@@$$FQAE_NABV1@H@Z:		; BStringArray::AddArray
;	.proc.def	D:I(III)

; Function Header:
; max stack depth = 4
; function size = 259 bytes
; local varsig tk = 0x11000014 
; Exception Information:
; 6 handlers, each consisting of filtered handlers

;	.formal.i4 1,"_array$" SIG: Optional C Binding Modifier(token:0x9D7666).ptr.Optional C Binding Modifier(token:0x9D7669).valueType (token:0x9D766B)
;	.formal.i4 2,"_atIndex$"
;	.formal.i4 0,"_this$" SIG: Optional C Binding Modifier(token:0x23C8A5E).Optional C Binding Modifier(token:0x23C8A60).ptr.valueType (token:0x23C8A63)
;	.local.u1 4,"$T6890"
;	.local.u1 3,"$T6891"
;	.local.u1 2,"$T6892"
;	.local.mb20  5,"__array$" SIG: valueType (token:0x990AC2)
;	.local.i4 1,"_i$6101"
;	.local.i4 0,"_node$6105" SIG: ptr.Optional C Binding Modifier(token:0x9D8B03).valueType (token:0x9D8B05)

;	.proc.beg

; 254  : 	if(array.list.IsEmpty()) return false;

	ldarg.1				; _array$
	call		?IsEmpty@BList@@$$FQBE_NXZ
	brfalse.s	$L6097
	ldc.i.0		0		; u8 0x0
	br		$L6920
$L6097:

; 255  : 	if(atIndex < 0 || atIndex >= list.CountItems()) return false;

	ldarg.2				; _atIndex$
	ldc.i.0		0		; i32 0x0
	blt.s		$L6099
	ldarg.2				; _atIndex$
	ldarg.0				; _this$
	call		?CountItems@BList@@$$FQBEHXZ
	blt.s		$L6098
$L6099:
	ldc.i.0		0		; u8 0x0
	br		$L6920
$L6098:

; 256  : 
; 257  :     BStringArray _array;

	ldloca.s	5		; __array$
	call		??0BStringArray@@$$FQAE@XZ
	pop		
$L6907:

; 258  : 	for(b_int32 i = 0; i < array.list.CountItems(); i++)

	ldc.i.0		0		; i32 0x0
	stloc.1				; _i$6101
	leave.s		$L6102

; 269  : 	}
; 270  : 
; 271  : 	return false;

	leave.s		$L6103
$L6908:
	ldsfld		__unep@??1BStringArray@@$$FQAE@XZ
	ldloca.s	5		; __array$
	call		?__CxxCallUnwindDtor@@$$J0YAXP6EXPAX@Z0@Z
	endfinally	
$L6103:

; 258  : 	for(b_int32 i = 0; i < array.list.CountItems(); i++)

	ldloc.1				; _i$6101
	ldc.i.1		1		; i32 0x1
	add		
	stloc.1				; _i$6101

; 269  : 	}
; 270  : 
; 271  : 	return false;

	leave.s		$L6102
$L6909:
	ldsfld		__unep@??1BStringArray@@$$FQAE@XZ
	ldloca.s	5		; __array$
	call		?__CxxCallUnwindDtor@@$$J0YAXP6EXPAX@Z0@Z
	endfinally	
$L6102:

; 258  : 	for(b_int32 i = 0; i < array.list.CountItems(); i++)

	ldloc.1				; _i$6101
	ldarg.1				; _array$
	call		?CountItems@BList@@$$FQBEHXZ
	blt.s		$L6917
	leave.s		$L6104
$L6917:

; 259  : 	{
; 260  : 		const __string_node__ *node = (const __string_node__*)array.list.ItemAt(i);

	ldarg.1				; _array$
	ldloc.1				; _i$6101
	call		?ItemAt@BList@@$$FQBEPAXH@Z
	stloc.0				; _node$6105

; 261  : 		if(!node || !node->str) continue;

	ldloc.0				; _node$6105
	brfalse.s	$L6108
	ldloc.0				; _node$6105
	unaligned	1		; u32 0x1
	ldind.i4	
	brtrue.s	$L6107
$L6108:
	leave.s		$L6103
$L6107:

; 262  :         if(_array.AddItem(node->str->String(), node->data) == false) return false;

	ldloca.s	5		; __array$
	ldloc.0				; _node$6105
	unaligned	1		; u32 0x1
	ldind.i4	
	call		?String@BString@@$$FQBEPBDXZ
	ldloc.0				; _node$6105
	ldc.i.4		4		; i32 0x4
	add		
	unaligned	1		; u32 0x1
	ldind.i4	
	call		?AddItem@BStringArray@@$$FQAE_NPBDPAX@Z
	brfalse.s	$L6918
	leave.s		$L6109
$L6918:
	ldc.i.0		0		; u8 0x0
	stloc.s		4		; $T6890
	leave.s		$L6910
$L6911:
	ldsfld		__unep@??1BStringArray@@$$FQAE@XZ
	ldloca.s	5		; __array$
	call		?__CxxCallUnwindDtor@@$$J0YAXP6EXPAX@Z0@Z
	endfinally	
$L6910:
	ldloca.s	5		; __array$
	call		??1BStringArray@@$$FQAE@XZ
	ldloc.s		4		; $T6890
	br.s		$L6920
$L6109:

; 263  : 	}

	leave.s		$L6103

; 269  : 	}
; 270  : 
; 271  : 	return false;

	leave.s		$L6104
$L6912:
	ldsfld		__unep@??1BStringArray@@$$FQAE@XZ
	ldloca.s	5		; __array$
	call		?__CxxCallUnwindDtor@@$$J0YAXP6EXPAX@Z0@Z
	endfinally	
$L6104:

; 264  : 
; 265  : 	if(list.AddList(&_array.list, atIndex))

	ldarg.0				; _this$
	ldloca.s	5		; __array$
	ldarg.2				; _atIndex$
	call		?AddList@BList@@$$FQAE_NPBV1@H@Z
	brtrue.s	$L6919
	leave.s		$L6111
$L6919:

; 266  : 	{
; 267  : 		_array.list.MakeEmpty();

	ldloca.s	5		; __array$
	call		?MakeEmpty@BList@@$$FQAEXXZ

; 268  : 		return true;

	ldc.i.1		1		; u8 0x1
	stloc.3				; $T6891
	leave.s		$L6913
$L6914:
	ldsfld		__unep@??1BStringArray@@$$FQAE@XZ
	ldloca.s	5		; __array$
	call		?__CxxCallUnwindDtor@@$$J0YAXP6EXPAX@Z0@Z
	endfinally	
$L6913:
	ldloca.s	5		; __array$
	call		??1BStringArray@@$$FQAE@XZ
	ldloc.3				; $T6891
	br.s		$L6920
$L6111:

; 269  : 	}
; 270  : 
; 271  : 	return false;

	ldc.i.0		0		; u8 0x0
	stloc.2				; $T6892
	leave.s		$L6915
$L6916:
	ldsfld		__unep@??1BStringArray@@$$FQAE@XZ
	ldloca.s	5		; __array$
	call		?__CxxCallUnwindDtor@@$$J0YAXP6EXPAX@Z0@Z
	endfinally	
$L6915:
	ldloca.s	5		; __array$
	call		??1BStringArray@@$$FQAE@XZ
	ldloc.2				; $T6892
	br.s		$L6920
$L6920:

; 272  : }

	ret		
 .end ?AddArray@BStringArray@@$$FQAE_NABV1@H@Z		; BStringArray::AddArray
;	.proc.end.u1
text	ENDS
PUBLIC	?AddArray@BStringArray@@QAE_NABV1@H@Z		; BStringArray::AddArray
PUBLIC	__mep@?AddArray@BStringArray@@$$FQAE_NABV1@H@Z
;	COMDAT __mep@?AddArray@BStringArray@@$$FQAE_NABV1@H@Z
data	SEGMENT
__mep@?AddArray@BStringArray@@$$FQAE_NABV1@H@Z TOKEN 06000051
; Function compile flags: /Odt
data	ENDS
;	COMDAT ?AddArray@BStringArray@@QAE_NABV1@H@Z
text	SEGMENT
?AddArray@BStringArray@@QAE_NABV1@H@Z PROC NEAR		; BStringArray::AddArray, COMDAT
	jmp	DWORD PTR __mep@?AddArray@BStringArray@@$$FQAE_NABV1@H@Z
?AddArray@BStringArray@@QAE_NABV1@H@Z ENDP		; BStringArray::AddArray
.global	
	.bss
.local	,4
.local	$T6935,4
; Function compile flags: /Odt
	.text
.global	?ItemAt@BStringArray@@$$FQBEPBVBString@@HPAPAX@Z ; BStringArray::ItemAt
?ItemAt@BStringArray@@$$FQBEPBVBString@@HPAPAX@Z:	; BStringArray::ItemAt
;	.proc.def	D:I(III)

; Function Header:
; max stack depth = 3
; function size = 34 bytes
; local varsig tk = 0x11000016 
; Exception Information:
; 0 handlers, each consisting of filtered handlers

;	.formal.i4 1,"_index$"
;	.formal.i4 2,"_attach_data$" SIG: ptr.ptr.void
;	.formal.i4 0,"_this$" SIG: Optional C Binding Modifier(token:0x99213E).Optional C Binding Modifier(token:0x992140).ptr.Optional C Binding Modifier(token:0x992143).valueType (token:0x992145)
;	.local.i4 0,"_node$" SIG: ptr.Optional C Binding Modifier(token:0x9D8B03).valueType (token:0x9D8B05)

;	.proc.beg

; 278  : 	const __string_node__ *node = (const __string_node__*)list.ItemAt(index);

	ldarg.0				; _this$
	ldarg.1				; _index$
	call		?ItemAt@BList@@$$FQBEPAXH@Z
	stloc.0				; _node$

; 279  : 	if(!node) return NULL;

	ldloc.0				; _node$
	brtrue.s	$L6121
	ldc.i.0		0		; i32 0x0
	br.s		$L6933
$L6121:

; 280  : 	if(attach_data) *attach_data = node->data;

	ldarg.2				; _attach_data$
	brfalse.s	$L6122
	ldarg.2				; _attach_data$
	ldloc.0				; _node$
	ldc.i.4		4		; i32 0x4
	add		
	unaligned	1		; u32 0x1
	ldind.i4	
	stind.i4	
$L6122:

; 281  : 	return node->str;

	ldloc.0				; _node$
	unaligned	1		; u32 0x1
	ldind.i4	
	br.s		$L6933
$L6933:

; 282  : }

	ret		
 .end ?ItemAt@BStringArray@@$$FQBEPBVBString@@HPAPAX@Z	; BStringArray::ItemAt
;	.proc.end.i4
text	ENDS
PUBLIC	?ItemAt@BStringArray@@QBEPBVBString@@HPAPAX@Z	; BStringArray::ItemAt
PUBLIC	__mep@?ItemAt@BStringArray@@$$FQBEPBVBString@@HPAPAX@Z
;	COMDAT __mep@?ItemAt@BStringArray@@$$FQBEPBVBString@@HPAPAX@Z
data	SEGMENT
__mep@?ItemAt@BStringArray@@$$FQBEPBVBString@@HPAPAX@Z TOKEN 06000052
; Function compile flags: /Odt
data	ENDS
;	COMDAT ?ItemAt@BStringArray@@QBEPBVBString@@HPAPAX@Z
text	SEGMENT
?ItemAt@BStringArray@@QBEPBVBString@@HPAPAX@Z PROC NEAR	; BStringArray::ItemAt, COMDAT
	jmp	DWORD PTR __mep@?ItemAt@BStringArray@@$$FQBEPBVBString@@HPAPAX@Z
?ItemAt@BStringArray@@QBEPBVBString@@HPAPAX@Z ENDP	; BStringArray::ItemAt
	.bss
.local	$T6948,4
; Function compile flags: /Odt
	.text
.global	?FirstItem@BStringArray@@$$FQBEPBVBString@@PAPAX@Z ; BStringArray::FirstItem
?FirstItem@BStringArray@@$$FQBEPBVBString@@PAPAX@Z:	; BStringArray::FirstItem
;	.proc.def	D:I(II)

; Function Header:
; max stack depth = 3
; function size = 33 bytes
; local varsig tk = 0x11000016 
; Exception Information:
; 0 handlers, each consisting of filtered handlers

;	.formal.i4 1,"_attach_data$" SIG: ptr.ptr.void
;	.formal.i4 0,"_this$" SIG: Optional C Binding Modifier(token:0x99213E).Optional C Binding Modifier(token:0x992140).ptr.Optional C Binding Modifier(token:0x992143).valueType (token:0x992145)
;	.local.i4 0,"_node$" SIG: ptr.Optional C Binding Modifier(token:0x9D8B03).valueType (token:0x9D8B05)

;	.proc.beg

; 288  : 	const __string_node__ *node = (const __string_node__*)list.FirstItem();

	ldarg.0				; _this$
	call		?FirstItem@BList@@$$FQBEPAXXZ
	stloc.0				; _node$

; 289  : 	if(!node) return NULL;

	ldloc.0				; _node$
	brtrue.s	$L6130
	ldc.i.0		0		; i32 0x0
	br.s		$L6947
$L6130:

; 290  : 	if(attach_data) *attach_data = node->data;

	ldarg.1				; _attach_data$
	brfalse.s	$L6131
	ldarg.1				; _attach_data$
	ldloc.0				; _node$
	ldc.i.4		4		; i32 0x4
	add		
	unaligned	1		; u32 0x1
	ldind.i4	
	stind.i4	
$L6131:

; 291  : 	return node->str;

	ldloc.0				; _node$
	unaligned	1		; u32 0x1
	ldind.i4	
	br.s		$L6947
$L6947:

; 292  : }

	ret		
 .end ?FirstItem@BStringArray@@$$FQBEPBVBString@@PAPAX@Z ; BStringArray::FirstItem
;	.proc.end.i4
text	ENDS
PUBLIC	?FirstItem@BStringArray@@QBEPBVBString@@PAPAX@Z	; BStringArray::FirstItem
PUBLIC	__mep@?FirstItem@BStringArray@@$$FQBEPBVBString@@PAPAX@Z
;	COMDAT __mep@?FirstItem@BStringArray@@$$FQBEPBVBString@@PAPAX@Z
data	SEGMENT
__mep@?FirstItem@BStringArray@@$$FQBEPBVBString@@PAPAX@Z TOKEN 06000053
; Function compile flags: /Odt
data	ENDS
;	COMDAT ?FirstItem@BStringArray@@QBEPBVBString@@PAPAX@Z
text	SEGMENT
?FirstItem@BStringArray@@QBEPBVBString@@PAPAX@Z PROC NEAR ; BStringArray::FirstItem, COMDAT
	jmp	DWORD PTR __mep@?FirstItem@BStringArray@@$$FQBEPBVBString@@PAPAX@Z
?FirstItem@BStringArray@@QBEPBVBString@@PAPAX@Z ENDP	; BStringArray::FirstItem
	.bss
.local	$T6961,4
; Function compile flags: /Odt
	.text
.global	?LastItem@BStringArray@@$$FQBEPBVBString@@PAPAX@Z ; BStringArray::LastItem
?LastItem@BStringArray@@$$FQBEPBVBString@@PAPAX@Z:	; BStringArray::LastItem
;	.proc.def	D:I(II)

; Function Header:
; max stack depth = 3
; function size = 33 bytes
; local varsig tk = 0x11000016 
; Exception Information:
; 0 handlers, each consisting of filtered handlers

;	.formal.i4 1,"_attach_data$" SIG: ptr.ptr.void
;	.formal.i4 0,"_this$" SIG: Optional C Binding Modifier(token:0x99213E).Optional C Binding Modifier(token:0x992140).ptr.Optional C Binding Modifier(token:0x992143).valueType (token:0x992145)
;	.local.i4 0,"_node$" SIG: ptr.Optional C Binding Modifier(token:0x9D8B03).valueType (token:0x9D8B05)

;	.proc.beg

; 298  : 	const __string_node__ *node = (const __string_node__*)list.LastItem();

	ldarg.0				; _this$
	call		?LastItem@BList@@$$FQBEPAXXZ
	stloc.0				; _node$

; 299  : 	if(!node) return NULL;

	ldloc.0				; _node$
	brtrue.s	$L6138
	ldc.i.0		0		; i32 0x0
	br.s		$L6960
$L6138:

; 300  : 	if(attach_data) *attach_data = node->data;

	ldarg.1				; _attach_data$
	brfalse.s	$L6139
	ldarg.1				; _attach_data$
	ldloc.0				; _node$
	ldc.i.4		4		; i32 0x4
	add		
	unaligned	1		; u32 0x1
	ldind.i4	
	stind.i4	
$L6139:

; 301  : 	return node->str;

	ldloc.0				; _node$
	unaligned	1		; u32 0x1
	ldind.i4	
	br.s		$L6960
$L6960:

; 302  : }

	ret		
 .end ?LastItem@BStringArray@@$$FQBEPBVBString@@PAPAX@Z	; BStringArray::LastItem
;	.proc.end.i4
text	ENDS
PUBLIC	?LastItem@BStringArray@@QBEPBVBString@@PAPAX@Z	; BStringArray::LastItem
PUBLIC	__mep@?LastItem@BStringArray@@$$FQBEPBVBString@@PAPAX@Z
;	COMDAT __mep@?LastItem@BStringArray@@$$FQBEPBVBString@@PAPAX@Z
data	SEGMENT
__mep@?LastItem@BStringArray@@$$FQBEPBVBString@@PAPAX@Z TOKEN 06000054
; Function compile flags: /Odt
data	ENDS
;	COMDAT ?LastItem@BStringArray@@QBEPBVBString@@PAPAX@Z
text	SEGMENT
?LastItem@BStringArray@@QBEPBVBString@@PAPAX@Z PROC NEAR ; BStringArray::LastItem, COMDAT
	jmp	DWORD PTR __mep@?LastItem@BStringArray@@$$FQBEPBVBString@@PAPAX@Z
?LastItem@BStringArray@@QBEPBVBString@@PAPAX@Z ENDP	; BStringArray::LastItem
	.bss
.local	$T6977,4
; Function compile flags: /Odt
	.text
.global	?RemoveItem@BStringArray@@$$FQAE_NH@Z		; BStringArray::RemoveItem
?RemoveItem@BStringArray@@$$FQAE_NH@Z:			; BStringArray::RemoveItem
;	.proc.def	D:I(II)

; Function Header:
; max stack depth = 2
; function size = 35 bytes
; local varsig tk = 0x11000017 
; Exception Information:
; 0 handlers, each consisting of filtered handlers

;	.formal.i4 1,"_index$"
;	.formal.i4 0,"_this$" SIG: Optional C Binding Modifier(token:0x23C8A5E).Optional C Binding Modifier(token:0x23C8A60).ptr.valueType (token:0x23C8A63)
;	.local.i4 1,"_node$" SIG: ptr.valueType (token:0x23C8863)
;	.local.i4 0,"$T6148" SIG: ptr.valueType (token:0x23C8863)
;	.local.i4 2,"$T6975" SIG: ptr.void

;	.proc.beg

; 308  : 	__string_node__ *node = (__string_node__*)list.RemoveItem(index);

	ldarg.0				; _this$
	ldarg.1				; _index$
	call		?RemoveItem@BList@@$$FQAEPAXH@Z
	stloc.1				; _node$

; 309  : 
; 310  : 	if(node)

	ldloc.1				; _node$
	brfalse.s	$L6146

; 311  : 	{
; 312  : 		delete node;

	ldloc.1				; _node$
	stloc.0				; $T6148
	ldloc.0				; $T6148
	brfalse.s	$L6965
	ldloc.0				; $T6148
	ldc.i.1		1		; u32 0x1
	call		??_G__string_node__@@$$FQAEPAXI@Z
	stloc.2				; $T6975
	br.s		$L6966
$L6965:
	ldc.i.0		0		; i32 0x0
	stloc.2				; $T6975
$L6966:

; 313  : 		return true;

	ldc.i.1		1		; u8 0x1
	br.s		$L6976
$L6146:

; 314  : 	}
; 315  : 
; 316  : 	return false;

	ldc.i.0		0		; u8 0x0
	br.s		$L6976
$L6976:

; 317  : }

	ret		
 .end ?RemoveItem@BStringArray@@$$FQAE_NH@Z		; BStringArray::RemoveItem
;	.proc.end.u1
text	ENDS
PUBLIC	?RemoveItem@BStringArray@@QAE_NH@Z		; BStringArray::RemoveItem
PUBLIC	__mep@?RemoveItem@BStringArray@@$$FQAE_NH@Z
;	COMDAT __mep@?RemoveItem@BStringArray@@$$FQAE_NH@Z
data	SEGMENT
__mep@?RemoveItem@BStringArray@@$$FQAE_NH@Z TOKEN 06000055
; Function compile flags: /Odt
data	ENDS
;	COMDAT ?RemoveItem@BStringArray@@QAE_NH@Z
text	SEGMENT
?RemoveItem@BStringArray@@QAE_NH@Z PROC NEAR		; BStringArray::RemoveItem, COMDAT
	jmp	DWORD PTR __mep@?RemoveItem@BStringArray@@$$FQAE_NH@Z
?RemoveItem@BStringArray@@QAE_NH@Z ENDP			; BStringArray::RemoveItem
.global	
	.bss
.local	,4
.local	$T7023,4
; Function compile flags: /Odt
	.text
.global	?RemoveItems@BStringArray@@$$FQAE_NHH@Z		; BStringArray::RemoveItems
?RemoveItems@BStringArray@@$$FQAE_NHH@Z:		; BStringArray::RemoveItems
;	.proc.def	D:I(III)

; Function Header:
; max stack depth = 3
; function size = 343 bytes
; local varsig tk = 0x11000019 
; Exception Information:
; 5 handlers, each consisting of filtered handlers

;	.formal.i4 1,"_index$"
;	.formal.i4 2,"_count$"
;	.formal.i4 0,"_this$" SIG: Optional C Binding Modifier(token:0x23C8A5E).Optional C Binding Modifier(token:0x23C8A60).ptr.valueType (token:0x23C8A63)
;	.local.mb20  8,"_list_store$" SIG: valueType (token:0x9D8C6E)
;	.local.i4 0,"_i$6168"
;	.local.i4 1,"$T6174" SIG: ptr.valueType (token:0x23C8863)
;	.local.u1 7,"$T6983"
;	.local.u1 6,"$T6984"
;	.local.u1 5,"$T6985"
;	.local.u1 3,"$T6988"
;	.local.u1 2,"$T6989"
;	.local.i4 4,"$T7004" SIG: ptr.void

;	.proc.beg

; 323  : 	if(index < 0 || index >= list.CountItems()) return false;

	ldarg.1				; _index$
	ldc.i.0		0		; i32 0x0
	blt.s		$L6155
	ldarg.1				; _index$
	ldarg.0				; _this$
	call		?CountItems@BList@@$$FQBEHXZ
	blt.s		$L6154
$L6155:
	ldc.i.0		0		; u8 0x0
	br		$L7021
$L6154:

; 324  : 
; 325  : 	if(count < 0) count = list.CountItems() - index;

	ldarg.2				; _count$
	ldc.i.0		0		; i32 0x0
	bge.s		$L6156
	ldarg.0				; _this$
	call		?CountItems@BList@@$$FQBEHXZ
	ldarg.1				; _index$
	sub		
	starg.s		2		; _count$

; 326  : 	else count = min_c(list.CountItems() - index, count);

	br.s		$L6157
$L6156:
	ldarg.0				; _this$
	call		?CountItems@BList@@$$FQBEHXZ
	ldarg.1				; _index$
	sub		
	ldarg.2				; _count$
	ble.s		$L6981
	ldarg.2				; _count$
	br.s		$L6982
$L6981:
	ldarg.0				; _this$
	call		?CountItems@BList@@$$FQBEHXZ
	ldarg.1				; _index$
	sub		
$L6982:
	starg.s		2		; _count$
$L6157:

; 327  : 
; 328  : 	if(count == 0) return true;

	ldarg.2				; _count$
	brtrue.s	$L6158
	ldc.i.1		1		; u8 0x1
	br		$L7021
$L6158:

; 329  : 
; 330  : 	BList list_store(list);

	ldloca.s	8		; _list_store$
	ldarg.0				; _this$
	call		??0BList@@$$FQAE@ABV0@@Z
	pop		
$L7005:

; 331  : 	if(list_store.RemoveItems(0, index) == false) return false;

	ldloca.s	8		; _list_store$
	ldc.i.0		0		; i32 0x0
	ldarg.1				; _index$
	call		?RemoveItems@BList@@$$FQAE_NHH@Z
	brfalse.s	$L7016
	leave.s		$L6160
$L7016:
	ldc.i.0		0		; u8 0x0
	stloc.s		7		; $T6983
	leave.s		$L7006
$L7007:
	ldsfld		__unep@??1BList@@$$FUAE@XZ
	ldloca.s	8		; _list_store$
	call		?__CxxCallUnwindDtor@@$$J0YAXP6EXPAX@Z0@Z
	endfinally	
$L7006:
	ldloca.s	8		; _list_store$
	call		??1BList@@$$FUAE@XZ
	ldloc.s		7		; $T6983
	br		$L7021
$L6160:

; 332  : 	if(list_store.CountItems() < count) return false;

	ldloca.s	8		; _list_store$
	call		?CountItems@BList@@$$FQBEHXZ
	ldarg.2				; _count$
	blt.s		$L7017
	leave.s		$L6162
$L7017:
	ldc.i.0		0		; u8 0x0
	stloc.s		6		; $T6984
	leave.s		$L7008
$L7009:
	ldsfld		__unep@??1BList@@$$FUAE@XZ
	ldloca.s	8		; _list_store$
	call		?__CxxCallUnwindDtor@@$$J0YAXP6EXPAX@Z0@Z
	endfinally	
$L7008:
	ldloca.s	8		; _list_store$
	call		??1BList@@$$FUAE@XZ
	ldloc.s		6		; $T6984
	br		$L7021
$L6162:

; 333  : 	if(list_store.CountItems() > count)

	ldloca.s	8		; _list_store$
	call		?CountItems@BList@@$$FQBEHXZ
	ldarg.2				; _count$
	bgt.s		$L7018
	leave.s		$L6164
$L7018:

; 334  : 		if(list_store.RemoveItems(count, -1) == false) return false;

	ldloca.s	8		; _list_store$
	ldarg.2				; _count$
	ldc.i.-1	-1		; i32 0xffffffff
	call		?RemoveItems@BList@@$$FQAE_NHH@Z
	brfalse.s	$L7019
	leave.s		$L6164
$L7019:
	ldc.i.0		0		; u8 0x0
	stloc.s		5		; $T6985
	leave.s		$L7010
$L7011:
	ldsfld		__unep@??1BList@@$$FUAE@XZ
	ldloca.s	8		; _list_store$
	call		?__CxxCallUnwindDtor@@$$J0YAXP6EXPAX@Z0@Z
	endfinally	
$L7010:
	ldloca.s	8		; _list_store$
	call		??1BList@@$$FUAE@XZ
	ldloc.s		5		; $T6985
	br		$L7021
$L6164:

; 335  : 
; 336  : 	if(list.RemoveItems(index, count))

	ldarg.0				; _this$
	ldarg.1				; _index$
	ldarg.2				; _count$
	call		?RemoveItems@BList@@$$FQAE_NHH@Z
	brtrue.s	$L7020
	leave.s		$L6167
$L7020:

; 337  : 	{
; 338  : 		for(b_int32 i = 0; i < list_store.CountItems(); i++) delete (__string_node__*)list_store.ItemAt(i);

	ldc.i.0		0		; i32 0x0
	stloc.0				; _i$6168
	br.s		$L6169
$L6170:
	ldloc.0				; _i$6168
	ldc.i.1		1		; i32 0x1
	add		
	stloc.0				; _i$6168
$L6169:
	ldloc.0				; _i$6168
	ldloca.s	8		; _list_store$
	call		?CountItems@BList@@$$FQBEHXZ
	bge.s		$L6171
	ldloca.s	8		; _list_store$
	ldloc.0				; _i$6168
	call		?ItemAt@BList@@$$FQBEPAXH@Z
	stloc.1				; $T6174
	ldloc.1				; $T6174
	brfalse.s	$L6986
	ldloc.1				; $T6174
	ldc.i.1		1		; u32 0x1
	call		??_G__string_node__@@$$FQAEPAXI@Z
	stloc.s		4		; $T7004
	br.s		$L6987
$L6986:
	ldc.i.0		0		; i32 0x0
	stloc.s		4		; $T7004
$L6987:
	br.s		$L6170
$L6171:

; 339  : 		list_store.MakeEmpty();

	ldloca.s	8		; _list_store$
	call		?MakeEmpty@BList@@$$FQAEXXZ

; 340  : 		return true;

	ldc.i.1		1		; u8 0x1
	stloc.3				; $T6988
	leave.s		$L7012
$L7013:
	ldsfld		__unep@??1BList@@$$FUAE@XZ
	ldloca.s	8		; _list_store$
	call		?__CxxCallUnwindDtor@@$$J0YAXP6EXPAX@Z0@Z
	endfinally	
$L7012:
	ldloca.s	8		; _list_store$
	call		??1BList@@$$FUAE@XZ
	ldloc.3				; $T6988
	br.s		$L7021
$L6167:

; 341  : 	}
; 342  : 
; 343  : 	return false;

	ldc.i.0		0		; u8 0x0
	stloc.2				; $T6989
	leave.s		$L7014
$L7015:
	ldsfld		__unep@??1BList@@$$FUAE@XZ
	ldloca.s	8		; _list_store$
	call		?__CxxCallUnwindDtor@@$$J0YAXP6EXPAX@Z0@Z
	endfinally	
$L7014:
	ldloca.s	8		; _list_store$
	call		??1BList@@$$FUAE@XZ
	ldloc.2				; $T6989
	br.s		$L7021
$L7021:

; 344  : }

	ret		
 .end ?RemoveItems@BStringArray@@$$FQAE_NHH@Z		; BStringArray::RemoveItems
;	.proc.end.u1
text	ENDS
PUBLIC	?RemoveItems@BStringArray@@QAE_NHH@Z		; BStringArray::RemoveItems
PUBLIC	__mep@?RemoveItems@BStringArray@@$$FQAE_NHH@Z
;	COMDAT __mep@?RemoveItems@BStringArray@@$$FQAE_NHH@Z
data	SEGMENT
__mep@?RemoveItems@BStringArray@@$$FQAE_NHH@Z TOKEN 06000056
; Function compile flags: /Odt
data	ENDS
;	COMDAT ?RemoveItems@BStringArray@@QAE_NHH@Z
text	SEGMENT
?RemoveItems@BStringArray@@QAE_NHH@Z PROC NEAR		; BStringArray::RemoveItems, COMDAT
	jmp	DWORD PTR __mep@?RemoveItems@BStringArray@@$$FQAE_NHH@Z
?RemoveItems@BStringArray@@QAE_NHH@Z ENDP		; BStringArray::RemoveItems
	.bss
.local	$T7036,4
; Function compile flags: /Odt
	.text
.global	?ReplaceItem@BStringArray@@$$FQAE_NHPBDPAX@Z	; BStringArray::ReplaceItem
?ReplaceItem@BStringArray@@$$FQAE_NHPBDPAX@Z:		; BStringArray::ReplaceItem
;	.proc.def	D:I(IIII)

; Function Header:
; max stack depth = 2
; function size = 45 bytes
; local varsig tk = 0x1100001A 
; Exception Information:
; 0 handlers, each consisting of filtered handlers

;	.formal.i4 1,"_index$"
;	.formal.i4 2,"_string$" SIG: ptr.Optional C Binding Modifier(token:0x23C902F).Optional C Binding Modifier(token:0x23C9031).i1
;	.formal.i4 3,"_attach_data$" SIG: ptr.void
;	.formal.i4 0,"_this$" SIG: Optional C Binding Modifier(token:0x23C8A5E).Optional C Binding Modifier(token:0x23C8A60).ptr.valueType (token:0x23C8A63)
;	.local.i4 0,"_node$" SIG: ptr.valueType (token:0x23C8863)

;	.proc.beg

; 350  : 	__string_node__ *node = (__string_node__*)list.ItemAt(index);

	ldarg.0				; _this$
	ldarg.1				; _index$
	call		?ItemAt@BList@@$$FQBEPAXH@Z
	stloc.0				; _node$

; 351  : 
; 352  : 	if(node && node->str)

	ldloc.0				; _node$
	brfalse.s	$L6186
	ldloc.0				; _node$
	unaligned	1		; u32 0x1
	ldind.i4	
	brfalse.s	$L6186

; 353  : 	{
; 354  : 		node->str->SetTo(string);

	ldloc.0				; _node$
	unaligned	1		; u32 0x1
	ldind.i4	
	ldarg.2				; _string$
	call		?SetTo@BString@@$$FQAEAAV1@PBD@Z
	pop		

; 355  : 		node->data = attach_data;

	ldloc.0				; _node$
	ldc.i.4		4		; i32 0x4
	add		
	ldarg.3				; _attach_data$
	unaligned	1		; u32 0x1
	stind.i4	

; 356  : 		return true;

	ldc.i.1		1		; u8 0x1
	br.s		$L7035
$L6186:

; 357  : 	}
; 358  : 
; 359  : 	return false;

	ldc.i.0		0		; u8 0x0
	br.s		$L7035
$L7035:

; 360  : }

	ret		
 .end ?ReplaceItem@BStringArray@@$$FQAE_NHPBDPAX@Z	; BStringArray::ReplaceItem
;	.proc.end.u1
text	ENDS
PUBLIC	?ReplaceItem@BStringArray@@QAE_NHPBDPAX@Z	; BStringArray::ReplaceItem
PUBLIC	__mep@?ReplaceItem@BStringArray@@$$FQAE_NHPBDPAX@Z
;	COMDAT __mep@?ReplaceItem@BStringArray@@$$FQAE_NHPBDPAX@Z
data	SEGMENT
__mep@?ReplaceItem@BStringArray@@$$FQAE_NHPBDPAX@Z TOKEN 06000057
; Function compile flags: /Odt
data	ENDS
;	COMDAT ?ReplaceItem@BStringArray@@QAE_NHPBDPAX@Z
text	SEGMENT
?ReplaceItem@BStringArray@@QAE_NHPBDPAX@Z PROC NEAR	; BStringArray::ReplaceItem, COMDAT
	jmp	DWORD PTR __mep@?ReplaceItem@BStringArray@@$$FQAE_NHPBDPAX@Z
?ReplaceItem@BStringArray@@QAE_NHPBDPAX@Z ENDP		; BStringArray::ReplaceItem
	.bss
.local	$T7049,4
; Function compile flags: /Odt
	.text
.global	?ReplaceItem@BStringArray@@$$FQAE_NHABVBString@@PAX@Z ; BStringArray::ReplaceItem
?ReplaceItem@BStringArray@@$$FQAE_NHABVBString@@PAX@Z:	; BStringArray::ReplaceItem
;	.proc.def	D:I(IIII)

; Function Header:
; max stack depth = 2
; function size = 45 bytes
; local varsig tk = 0x1100001A 
; Exception Information:
; 0 handlers, each consisting of filtered handlers

;	.formal.i4 1,"_index$"
;	.formal.i4 2,"_string$" SIG: Optional C Binding Modifier(token:0x990B3E).ptr.Optional C Binding Modifier(token:0x990B41).valueType (token:0x990B43)
;	.formal.i4 3,"_attach_data$" SIG: ptr.void
;	.formal.i4 0,"_this$" SIG: Optional C Binding Modifier(token:0x23C8A5E).Optional C Binding Modifier(token:0x23C8A60).ptr.valueType (token:0x23C8A63)
;	.local.i4 0,"_node$" SIG: ptr.valueType (token:0x23C8863)

;	.proc.beg

; 366  : 	__string_node__ *node = (__string_node__*)list.ItemAt(index);

	ldarg.0				; _this$
	ldarg.1				; _index$
	call		?ItemAt@BList@@$$FQBEPAXH@Z
	stloc.0				; _node$

; 367  : 
; 368  : 	if(node && node->str)

	ldloc.0				; _node$
	brfalse.s	$L6195
	ldloc.0				; _node$
	unaligned	1		; u32 0x1
	ldind.i4	
	brfalse.s	$L6195

; 369  : 	{
; 370  : 		node->str->SetTo(string);

	ldloc.0				; _node$
	unaligned	1		; u32 0x1
	ldind.i4	
	ldarg.2				; _string$
	call		?SetTo@BString@@$$FQAEAAV1@ABV1@@Z
	pop		

; 371  : 		node->data = attach_data;

	ldloc.0				; _node$
	ldc.i.4		4		; i32 0x4
	add		
	ldarg.3				; _attach_data$
	unaligned	1		; u32 0x1
	stind.i4	

; 372  : 		return true;

	ldc.i.1		1		; u8 0x1
	br.s		$L7048
$L6195:

; 373  : 	}
; 374  : 
; 375  : 	return false;

	ldc.i.0		0		; u8 0x0
	br.s		$L7048
$L7048:

; 376  : }

	ret		
 .end ?ReplaceItem@BStringArray@@$$FQAE_NHABVBString@@PAX@Z ; BStringArray::ReplaceItem
;	.proc.end.u1
text	ENDS
PUBLIC	?ReplaceItem@BStringArray@@QAE_NHABVBString@@PAX@Z ; BStringArray::ReplaceItem
PUBLIC	__mep@?ReplaceItem@BStringArray@@$$FQAE_NHABVBString@@PAX@Z
;	COMDAT __mep@?ReplaceItem@BStringArray@@$$FQAE_NHABVBString@@PAX@Z
data	SEGMENT
__mep@?ReplaceItem@BStringArray@@$$FQAE_NHABVBString@@PAX@Z TOKEN 06000058
; Function compile flags: /Odt
data	ENDS
;	COMDAT ?ReplaceItem@BStringArray@@QAE_NHABVBString@@PAX@Z
text	SEGMENT
?ReplaceItem@BStringArray@@QAE_NHABVBString@@PAX@Z PROC NEAR ; BStringArray::ReplaceItem, COMDAT
	jmp	DWORD PTR __mep@?ReplaceItem@BStringArray@@$$FQAE_NHABVBString@@PAX@Z
?ReplaceItem@BStringArray@@QAE_NHABVBString@@PAX@Z ENDP	; BStringArray::ReplaceItem
.global	
	.bss
.local	,4
; Function compile flags: /Odt
	.text
.global	?SortItems@BStringArray@@$$FQAEAAV1@P6AHPAPBVBString@@0@Z@Z ; BStringArray::SortItems
?SortItems@BStringArray@@$$FQAEAAV1@P6AHPAPBVBString@@0@Z@Z: ; BStringArray::SortItems
;	.proc.def	D:I(II)

; Function Header:
; max stack depth = 2
; function size = 11 bytes
; local varsig tk = 0x0 
; Exception Information:
; 0 handlers, each consisting of filtered handlers

;	.formal.i4 1,"_cmp$" SIG: fnptr
;	.formal.i4 0,"_this$" SIG: Optional C Binding Modifier(token:0x23C8A5E).Optional C Binding Modifier(token:0x23C8A60).ptr.valueType (token:0x23C8A63)

;	.proc.beg

; 382  : 	list.SortItems((int (*)(const void*, const void*))cmp);

	ldarg.0				; _this$
	ldarg.1				; _cmp$
	call		?SortItems@BList@@$$FQAEXP6AHPBX0@Z@Z

; 383  : 
; 384  : 	return *this;

	ldarg.0				; _this$
	br.s		$L7061
$L7061:

; 385  : }

	ret		
 .end ?SortItems@BStringArray@@$$FQAEAAV1@P6AHPAPBVBString@@0@Z@Z ; BStringArray::SortItems
;	.proc.end.i4
text	ENDS
PUBLIC	?SortItems@BStringArray@@QAEAAV1@P6AHPAPBVBString@@0@Z@Z ; BStringArray::SortItems
PUBLIC	__mep@?SortItems@BStringArray@@$$FQAEAAV1@P6AHPAPBVBString@@0@Z@Z
;	COMDAT __mep@?SortItems@BStringArray@@$$FQAEAAV1@P6AHPAPBVBString@@0@Z@Z
data	SEGMENT
__mep@?SortItems@BStringArray@@$$FQAEAAV1@P6AHPAPBVBString@@0@Z@Z TOKEN 06000059
; Function compile flags: /Odt
data	ENDS
;	COMDAT ?SortItems@BStringArray@@QAEAAV1@P6AHPAPBVBString@@0@Z@Z
text	SEGMENT
?SortItems@BStringArray@@QAEAAV1@P6AHPAPBVBString@@0@Z@Z PROC NEAR ; BStringArray::SortItems, COMDAT
	jmp	DWORD PTR __mep@?SortItems@BStringArray@@$$FQAEAAV1@P6AHPAPBVBString@@0@Z@Z
?SortItems@BStringArray@@QAEAAV1@P6AHPAPBVBString@@0@Z@Z ENDP ; BStringArray::SortItems
; Function compile flags: /Odt
	.text
.global	?SwapItems@BStringArray@@$$FQAE_NHH@Z		; BStringArray::SwapItems
?SwapItems@BStringArray@@$$FQAE_NHH@Z:			; BStringArray::SwapItems
;	.proc.def	D:I(III)

; Function Header:
; max stack depth = 3
; function size = 18 bytes
; local varsig tk = 0x0 
; Exception Information:
; 0 handlers, each consisting of filtered handlers

;	.formal.i4 1,"_indexA$"
;	.formal.i4 2,"_indexB$"
;	.formal.i4 0,"_this$" SIG: Optional C Binding Modifier(token:0x23C8A5E).Optional C Binding Modifier(token:0x23C8A60).ptr.valueType (token:0x23C8A63)

;	.proc.beg

; 391  : 	if(indexA != indexB) return list.SwapItems(indexA, indexB);

	ldarg.1				; _indexA$
	ldarg.2				; _indexB$
	beq.s		$L6211
	ldarg.0				; _this$
	ldarg.1				; _indexA$
	ldarg.2				; _indexB$
	call		?SwapItems@BList@@$$FQAE_NHH@Z
	br.s		$L7074
$L6211:

; 392  : 
; 393  : 	return true;

	ldc.i.1		1		; u8 0x1
	br.s		$L7074
$L7074:

; 394  : }

	ret		
 .end ?SwapItems@BStringArray@@$$FQAE_NHH@Z		; BStringArray::SwapItems
;	.proc.end.u1
text	ENDS
PUBLIC	?SwapItems@BStringArray@@QAE_NHH@Z		; BStringArray::SwapItems
PUBLIC	__mep@?SwapItems@BStringArray@@$$FQAE_NHH@Z
;	COMDAT __mep@?SwapItems@BStringArray@@$$FQAE_NHH@Z
data	SEGMENT
__mep@?SwapItems@BStringArray@@$$FQAE_NHH@Z TOKEN 0600005A
; Function compile flags: /Odt
data	ENDS
;	COMDAT ?SwapItems@BStringArray@@QAE_NHH@Z
text	SEGMENT
?SwapItems@BStringArray@@QAE_NHH@Z PROC NEAR		; BStringArray::SwapItems, COMDAT
	jmp	DWORD PTR __mep@?SwapItems@BStringArray@@$$FQAE_NHH@Z
?SwapItems@BStringArray@@QAE_NHH@Z ENDP			; BStringArray::SwapItems
; Function compile flags: /Odt
	.text
.global	?MoveItem@BStringArray@@$$FQAE_NHH@Z		; BStringArray::MoveItem
?MoveItem@BStringArray@@$$FQAE_NHH@Z:			; BStringArray::MoveItem
;	.proc.def	D:I(III)

; Function Header:
; max stack depth = 3
; function size = 18 bytes
; local varsig tk = 0x0 
; Exception Information:
; 0 handlers, each consisting of filtered handlers

;	.formal.i4 1,"_fromIndex$"
;	.formal.i4 2,"_toIndex$"
;	.formal.i4 0,"_this$" SIG: Optional C Binding Modifier(token:0x23C8A5E).Optional C Binding Modifier(token:0x23C8A60).ptr.valueType (token:0x23C8A63)

;	.proc.beg

; 400  : 	if(fromIndex != toIndex) return list.MoveItem(fromIndex, toIndex);

	ldarg.1				; _fromIndex$
	ldarg.2				; _toIndex$
	beq.s		$L6217
	ldarg.0				; _this$
	ldarg.1				; _fromIndex$
	ldarg.2				; _toIndex$
	call		?MoveItem@BList@@$$FQAE_NHH@Z
	br.s		$L7086
$L6217:

; 401  : 
; 402  : 	return true;

	ldc.i.1		1		; u8 0x1
	br.s		$L7086
$L7086:

; 403  : }

	ret		
 .end ?MoveItem@BStringArray@@$$FQAE_NHH@Z		; BStringArray::MoveItem
;	.proc.end.u1
text	ENDS
PUBLIC	?MoveItem@BStringArray@@QAE_NHH@Z		; BStringArray::MoveItem
PUBLIC	__mep@?MoveItem@BStringArray@@$$FQAE_NHH@Z
;	COMDAT __mep@?MoveItem@BStringArray@@$$FQAE_NHH@Z
data	SEGMENT
__mep@?MoveItem@BStringArray@@$$FQAE_NHH@Z TOKEN 0600005B
; Function compile flags: /Odt
data	ENDS
;	COMDAT ?MoveItem@BStringArray@@QAE_NHH@Z
text	SEGMENT
?MoveItem@BStringArray@@QAE_NHH@Z PROC NEAR		; BStringArray::MoveItem, COMDAT
	jmp	DWORD PTR __mep@?MoveItem@BStringArray@@$$FQAE_NHH@Z
?MoveItem@BStringArray@@QAE_NHH@Z ENDP			; BStringArray::MoveItem
.global	
.global	
	.bss
.local	,4
.local	,4
.local	$T7102,4
; Function compile flags: /Odt
	.text
.global	?FindString@BStringArray@@$$FQBEHPBDH_N1@Z	; BStringArray::FindString
?FindString@BStringArray@@$$FQBEHPBDH_N1@Z:		; BStringArray::FindString
;	.proc.def	D:I(IIIII)

; Function Header:
; max stack depth = 4
; function size = 122 bytes
; local varsig tk = 0x1100001E 
; Exception Information:
; 0 handlers, each consisting of filtered handlers

;	.formal.i4 1,"_string$" SIG: ptr.Optional C Binding Modifier(token:0x23C902F).Optional C Binding Modifier(token:0x23C9031).i1
;	.formal.i4 2,"_startIndex$"
;	.formal.u1 3,"_all_equal$" SIG: bool
;	.formal.u1 4,"_invert$" SIG: bool
;	.formal.i4 0,"_this$" SIG: Optional C Binding Modifier(token:0x99213E).Optional C Binding Modifier(token:0x992140).ptr.Optional C Binding Modifier(token:0x992143).valueType (token:0x992145)
;	.local.i4 0,"_i$"
;	.local.i4 1,"_str$6231" SIG: ptr.Optional C Binding Modifier(token:0x9900B3).valueType (token:0x9900B5)

;	.proc.beg

; 409  : 	if(startIndex < 0 || startIndex >= list.CountItems()) return -1;

	ldarg.2				; _startIndex$
	ldc.i.0		0		; i32 0x0
	blt.s		$L6226
	ldarg.2				; _startIndex$
	ldarg.0				; _this$
	call		?CountItems@BList@@$$FQBEHXZ
	blt.s		$L6225
$L6226:
	ldc.i.-1	-1		; i32 0xffffffff
	br.s		$L7099
$L6225:

; 410  : 
; 411  : 	b_int32 i = startIndex;

	ldarg.2				; _startIndex$
	stloc.0				; _i$
$L6229:

; 412  : 
; 413  : 	while(i >= 0 && i < list.CountItems())

	ldloc.0				; _i$
	ldc.i.0		0		; i32 0x0
	blt.s		$L6230
	ldloc.0				; _i$
	ldarg.0				; _this$
	call		?CountItems@BList@@$$FQBEHXZ
	bge.s		$L6230

; 414  : 	{
; 415  :         const BString *str = ItemAt(i);

	ldarg.0				; _this$
	ldloc.0				; _i$
	ldc.i.0		0		; i32 0x0
	call		?ItemAt@BStringArray@@$$FQBEPBVBString@@HPAPAX@Z
	stloc.1				; _str$6231

; 416  : 
; 417  : 		if(str)

	ldloc.1				; _str$6231
	brfalse.s	$L6232

; 418  : 		{
; 419  : 			if(string == NULL || *string == 0)

	ldarg.1				; _string$
	brfalse.s	$L6234
	ldarg.1				; _string$
	ldind.i1	
	brtrue.s	$L6233
$L6234:

; 420  : 			{
; 421  : 				if(str->Length() <= 0) return i;

	ldloc.1				; _str$6231
	call		?Length@BString@@$$FQBEHXZ
	ldc.i.0		0		; i32 0x0
	bgt.s		$L6235
	ldloc.0				; _i$
	br.s		$L7099
$L6235:

; 422  : 			}
; 423  : 			else if(!all_equal)

	br.s		$L6236
$L6233:
	ldarg.3				; _all_equal$
	brtrue.s	$L6237

; 424  : 			{
; 425  : 				if(str->FindFirst(string) >= 0) return i;

	ldloc.1				; _str$6231
	ldarg.1				; _string$
	call		?FindFirst@BString@@$$FQBEHPBD@Z
	ldc.i.0		0		; i32 0x0
	blt.s		$L6238
	ldloc.0				; _i$
	br.s		$L7099
$L6238:

; 426  : 			}
; 427  : 			else

	br.s		$L6236
$L6237:

; 428  : 			{
; 429  : 				if(*str == string) return i;

	ldloc.1				; _str$6231
	ldarg.1				; _string$
	call		??8BString@@$$FQBE_NPBD@Z
	brfalse.s	$L6236
	ldloc.0				; _i$
	br.s		$L7099
$L6236:

; 430  : 			}
; 431  : 		}
; 432  : 		else if(string == NULL || *string == 0)

	br.s		$L6241
$L6232:
	ldarg.1				; _string$
	brfalse.s	$L6243
	ldarg.1				; _string$
	ldind.i1	
	brtrue.s	$L6241
$L6243:

; 433  : 		{
; 434  : 			return i;

	ldloc.0				; _i$
	br.s		$L7099
$L6241:

; 435  : 		}
; 436  : 
; 437  : 		i += (invert ? -1 : 1);

	ldloc.0				; _i$
	ldc.i.-1	-1		; i32 0xffffffff
	ldarg.s		4		; _invert$
	ldc.i.0		0		; i32 0x0
	bne.un.s	$L7098
	neg		
$L7098:
	add		
	stloc.0				; _i$

; 438  : 	}

	br.s		$L6229
$L6230:

; 439  : 
; 440  : 	return -1;

	ldc.i.-1	-1		; i32 0xffffffff
	br.s		$L7099
$L7099:

; 441  : }

	ret		
 .end ?FindString@BStringArray@@$$FQBEHPBDH_N1@Z	; BStringArray::FindString
;	.proc.end.i4
text	ENDS
PUBLIC	?FindString@BStringArray@@QBEHPBDH_N1@Z		; BStringArray::FindString
PUBLIC	__mep@?FindString@BStringArray@@$$FQBEHPBDH_N1@Z
;	COMDAT __mep@?FindString@BStringArray@@$$FQBEHPBDH_N1@Z
data	SEGMENT
__mep@?FindString@BStringArray@@$$FQBEHPBDH_N1@Z TOKEN 0600005C
; Function compile flags: /Odt
data	ENDS
;	COMDAT ?FindString@BStringArray@@QBEHPBDH_N1@Z
text	SEGMENT
?FindString@BStringArray@@QBEHPBDH_N1@Z PROC NEAR	; BStringArray::FindString, COMDAT
	jmp	DWORD PTR __mep@?FindString@BStringArray@@$$FQBEHPBDH_N1@Z
?FindString@BStringArray@@QBEHPBDH_N1@Z ENDP		; BStringArray::FindString
; Function compile flags: /Odt
	.text
.global	?FindString@BStringArray@@$$FQBEHABVBString@@H_N1@Z ; BStringArray::FindString
?FindString@BStringArray@@$$FQBEHABVBString@@H_N1@Z:	; BStringArray::FindString
;	.proc.def	D:I(IIIII)

; Function Header:
; max stack depth = 5
; function size = 19 bytes
; local varsig tk = 0x0 
; Exception Information:
; 0 handlers, each consisting of filtered handlers

;	.formal.i4 1,"_string$" SIG: Optional C Binding Modifier(token:0x990B3E).ptr.Optional C Binding Modifier(token:0x990B41).valueType (token:0x990B43)
;	.formal.i4 2,"_startIndex$"
;	.formal.u1 3,"_all_equal$" SIG: bool
;	.formal.u1 4,"_invert$" SIG: bool
;	.formal.i4 0,"_this$" SIG: Optional C Binding Modifier(token:0x99213E).Optional C Binding Modifier(token:0x992140).ptr.Optional C Binding Modifier(token:0x992143).valueType (token:0x992145)

;	.proc.beg

; 447  :     return FindString(string.String(), startIndex, all_equal, invert);

	ldarg.0				; _this$
	ldarg.1				; _string$
	call		?String@BString@@$$FQBEPBDXZ
	ldarg.2				; _startIndex$
	ldarg.3				; _all_equal$
	ldarg.s		4		; _invert$
	call		?FindString@BStringArray@@$$FQBEHPBDH_N1@Z
	br.s		$L7114
$L7114:

; 448  : }

	ret		
 .end ?FindString@BStringArray@@$$FQBEHABVBString@@H_N1@Z ; BStringArray::FindString
;	.proc.end.i4
text	ENDS
PUBLIC	?FindString@BStringArray@@QBEHABVBString@@H_N1@Z ; BStringArray::FindString
PUBLIC	__mep@?FindString@BStringArray@@$$FQBEHABVBString@@H_N1@Z
;	COMDAT __mep@?FindString@BStringArray@@$$FQBEHABVBString@@H_N1@Z
data	SEGMENT
__mep@?FindString@BStringArray@@$$FQBEHABVBString@@H_N1@Z TOKEN 0600005D
; Function compile flags: /Odt
data	ENDS
;	COMDAT ?FindString@BStringArray@@QBEHABVBString@@H_N1@Z
text	SEGMENT
?FindString@BStringArray@@QBEHABVBString@@H_N1@Z PROC NEAR ; BStringArray::FindString, COMDAT
	jmp	DWORD PTR __mep@?FindString@BStringArray@@$$FQBEHABVBString@@H_N1@Z
?FindString@BStringArray@@QBEHABVBString@@H_N1@Z ENDP	; BStringArray::FindString
	.bss
.local	$T7128,4
; Function compile flags: /Odt
	.text
.global	?IFindString@BStringArray@@$$FQBEHPBDH_N1@Z	; BStringArray::IFindString
?IFindString@BStringArray@@$$FQBEHPBDH_N1@Z:		; BStringArray::IFindString
;	.proc.def	D:I(IIIII)

; Function Header:
; max stack depth = 4
; function size = 121 bytes
; local varsig tk = 0x1100001E 
; Exception Information:
; 0 handlers, each consisting of filtered handlers

;	.formal.i4 1,"_string$" SIG: ptr.Optional C Binding Modifier(token:0x23C902F).Optional C Binding Modifier(token:0x23C9031).i1
;	.formal.i4 2,"_startIndex$"
;	.formal.u1 3,"_all_equal$" SIG: bool
;	.formal.u1 4,"_invert$" SIG: bool
;	.formal.i4 0,"_this$" SIG: Optional C Binding Modifier(token:0x99213E).Optional C Binding Modifier(token:0x992140).ptr.Optional C Binding Modifier(token:0x992143).valueType (token:0x992145)
;	.local.i4 0,"_i$"
;	.local.i4 1,"_str$6266" SIG: ptr.Optional C Binding Modifier(token:0x9900B3).valueType (token:0x9900B5)

;	.proc.beg

; 454  : 	if(startIndex < 0 || startIndex >= list.CountItems()) return -1;

	ldarg.2				; _startIndex$
	ldc.i.0		0		; i32 0x0
	blt.s		$L6261
	ldarg.2				; _startIndex$
	ldarg.0				; _this$
	call		?CountItems@BList@@$$FQBEHXZ
	blt.s		$L6260
$L6261:
	ldc.i.-1	-1		; i32 0xffffffff
	br.s		$L7127
$L6260:

; 455  : 
; 456  : 	b_int32 i = startIndex;

	ldarg.2				; _startIndex$
	stloc.0				; _i$
$L6264:

; 457  : 
; 458  : 	while(i >= 0 && i < list.CountItems())

	ldloc.0				; _i$
	ldc.i.0		0		; i32 0x0
	blt.s		$L6265
	ldloc.0				; _i$
	ldarg.0				; _this$
	call		?CountItems@BList@@$$FQBEHXZ
	bge.s		$L6265

; 459  : 	{
; 460  :         const BString *str = ItemAt(i);

	ldarg.0				; _this$
	ldloc.0				; _i$
	ldc.i.0		0		; i32 0x0
	call		?ItemAt@BStringArray@@$$FQBEPBVBString@@HPAPAX@Z
	stloc.1				; _str$6266

; 461  : 
; 462  : 		if(str)

	ldloc.1				; _str$6266
	brfalse.s	$L6267

; 463  : 		{
; 464  : 			if(string == NULL || *string == 0)

	ldarg.1				; _string$
	brfalse.s	$L6269
	ldarg.1				; _string$
	ldind.i1	
	brtrue.s	$L6268
$L6269:

; 465  : 			{
; 466  : 				if(str->Length() == 0) return i;

	ldloc.1				; _str$6266
	call		?Length@BString@@$$FQBEHXZ
	brtrue.s	$L6270
	ldloc.0				; _i$
	br.s		$L7127
$L6270:

; 467  : 			}
; 468  : 			else if(!all_equal)

	br.s		$L6271
$L6268:
	ldarg.3				; _all_equal$
	brtrue.s	$L6272

; 469  : 			{
; 470  : 				if(str->IFindFirst(string) >= 0) return i;

	ldloc.1				; _str$6266
	ldarg.1				; _string$
	call		?IFindFirst@BString@@$$FQBEHPBD@Z
	ldc.i.0		0		; i32 0x0
	blt.s		$L6273
	ldloc.0				; _i$
	br.s		$L7127
$L6273:

; 471  : 			}
; 472  : 			else

	br.s		$L6271
$L6272:

; 473  : 			{
; 474  : 				if(str->ICompare(string) == 0) return i;

	ldloc.1				; _str$6266
	ldarg.1				; _string$
	call		?ICompare@BString@@$$FQBEHPBD@Z
	brtrue.s	$L6271
	ldloc.0				; _i$
	br.s		$L7127
$L6271:

; 475  : 			}
; 476  : 		}
; 477  : 		else if(string == NULL || *string == 0)

	br.s		$L6276
$L6267:
	ldarg.1				; _string$
	brfalse.s	$L6278
	ldarg.1				; _string$
	ldind.i1	
	brtrue.s	$L6276
$L6278:

; 478  : 		{
; 479  : 			return i;

	ldloc.0				; _i$
	br.s		$L7127
$L6276:

; 480  : 		}
; 481  : 
; 482  : 		i += (invert ? -1 : 1);

	ldloc.0				; _i$
	ldc.i.-1	-1		; i32 0xffffffff
	ldarg.s		4		; _invert$
	ldc.i.0		0		; i32 0x0
	bne.un.s	$L7126
	neg		
$L7126:
	add		
	stloc.0				; _i$

; 483  : 	}

	br.s		$L6264
$L6265:

; 484  : 
; 485  : 	return -1;

	ldc.i.-1	-1		; i32 0xffffffff
	br.s		$L7127
$L7127:

; 486  : }

	ret		
 .end ?IFindString@BStringArray@@$$FQBEHPBDH_N1@Z	; BStringArray::IFindString
;	.proc.end.i4
text	ENDS
PUBLIC	?IFindString@BStringArray@@QBEHPBDH_N1@Z	; BStringArray::IFindString
PUBLIC	__mep@?IFindString@BStringArray@@$$FQBEHPBDH_N1@Z
;	COMDAT __mep@?IFindString@BStringArray@@$$FQBEHPBDH_N1@Z
data	SEGMENT
__mep@?IFindString@BStringArray@@$$FQBEHPBDH_N1@Z TOKEN 0600005E
; Function compile flags: /Odt
data	ENDS
;	COMDAT ?IFindString@BStringArray@@QBEHPBDH_N1@Z
text	SEGMENT
?IFindString@BStringArray@@QBEHPBDH_N1@Z PROC NEAR	; BStringArray::IFindString, COMDAT
	jmp	DWORD PTR __mep@?IFindString@BStringArray@@$$FQBEHPBDH_N1@Z
?IFindString@BStringArray@@QBEHPBDH_N1@Z ENDP		; BStringArray::IFindString
; Function compile flags: /Odt
	.text
.global	?IFindString@BStringArray@@$$FQBEHABVBString@@H_N1@Z ; BStringArray::IFindString
?IFindString@BStringArray@@$$FQBEHABVBString@@H_N1@Z:	; BStringArray::IFindString
;	.proc.def	D:I(IIIII)

; Function Header:
; max stack depth = 5
; function size = 19 bytes
; local varsig tk = 0x0 
; Exception Information:
; 0 handlers, each consisting of filtered handlers

;	.formal.i4 1,"_string$" SIG: Optional C Binding Modifier(token:0x990B3E).ptr.Optional C Binding Modifier(token:0x990B41).valueType (token:0x990B43)
;	.formal.i4 2,"_startIndex$"
;	.formal.u1 3,"_all_equal$" SIG: bool
;	.formal.u1 4,"_invert$" SIG: bool
;	.formal.i4 0,"_this$" SIG: Optional C Binding Modifier(token:0x99213E).Optional C Binding Modifier(token:0x992140).ptr.Optional C Binding Modifier(token:0x992143).valueType (token:0x992145)

;	.proc.beg

; 491  :     return IFindString(string.String(), startIndex, all_equal, invert);

	ldarg.0				; _this$
	ldarg.1				; _string$
	call		?String@BString@@$$FQBEPBDXZ
	ldarg.2				; _startIndex$
	ldarg.3				; _all_equal$
	ldarg.s		4		; _invert$
	call		?IFindString@BStringArray@@$$FQBEHPBDH_N1@Z
	br.s		$L7140
$L7140:

; 492  : }

	ret		
 .end ?IFindString@BStringArray@@$$FQBEHABVBString@@H_N1@Z ; BStringArray::IFindString
;	.proc.end.i4
text	ENDS
PUBLIC	?IFindString@BStringArray@@QBEHABVBString@@H_N1@Z ; BStringArray::IFindString
PUBLIC	__mep@?IFindString@BStringArray@@$$FQBEHABVBString@@H_N1@Z
;	COMDAT __mep@?IFindString@BStringArray@@$$FQBEHABVBString@@H_N1@Z
data	SEGMENT
__mep@?IFindString@BStringArray@@$$FQBEHABVBString@@H_N1@Z TOKEN 0600005F
; Function compile flags: /Odt
data	ENDS
;	COMDAT ?IFindString@BStringArray@@QBEHABVBString@@H_N1@Z
text	SEGMENT
?IFindString@BStringArray@@QBEHABVBString@@H_N1@Z PROC NEAR ; BStringArray::IFindString, COMDAT
	jmp	DWORD PTR __mep@?IFindString@BStringArray@@$$FQBEHABVBString@@H_N1@Z
?IFindString@BStringArray@@QBEHABVBString@@H_N1@Z ENDP	; BStringArray::IFindString
text	ENDS
END
